// SPDX-License-Identifier: GPL-2.0
/*
 * Copyright (c) 2020 Rockchip Electronics Co. Ltd.
 *
 * Author: Zorro Liu <zorro.liu@rock-chips.com>
 */

	.text
	.file	"ebc_dev_y8.c"

	.section	.initcall6s.init,"a",@progbits
__initcall__kmod_rkebc__464_3897_ebc_init6s:
.Ltmp0:
	.word	ebc_init-.Ltmp0
	.text



	.file	1 "/home/lyx/rk-android14/kernel-6.1" "drivers/gpu/drm/rockchip/ebc-dev/ebc_dev_y8.c"
	.file	2 "/home/lyx/rk-android14/kernel-6.1" "./include/linux/init.h"
	.file	3 "/home/lyx/rk-android14/kernel-6.1" "./include/linux/platform_device.h"
	.file	4 "/home/lyx/rk-android14/kernel-6.1" "./include/linux/types.h"
	.file	5 "/home/lyx/rk-android14/kernel-6.1" "./include/linux/kobject.h"
	.file	6 "/home/lyx/rk-android14/kernel-6.1" "./include/asm-generic/qspinlock_types.h"
	.file	7 "/home/lyx/rk-android14/kernel-6.1" "./include/uapi/asm-generic/int-ll64.h"
	.file	8 "/home/lyx/rk-android14/kernel-6.1" "./include/asm-generic/int-ll64.h"
	.file	9 "/home/lyx/rk-android14/kernel-6.1" "./include/linux/spinlock_types_raw.h"
	.file	10 "/home/lyx/rk-android14/kernel-6.1" "./include/linux/spinlock_types.h"
	.file	11 "/home/lyx/rk-android14/kernel-6.1" "./include/uapi/asm-generic/posix_types.h"
	.file	12 "/home/lyx/rk-android14/kernel-6.1" "./include/linux/sysfs.h"
	.file	13 "/home/lyx/rk-android14/kernel-6.1" "./include/linux/fs.h"
	.file	14 "/home/lyx/rk-android14/kernel-6.1" "./include/linux/uidgid.h"
	.file	15 "/home/lyx/rk-android14/kernel-6.1" "./include/linux/dcache.h"
	.file	16 "/home/lyx/rk-android14/kernel-6.1" "./include/linux/seqlock.h"
	.file	17 "/home/lyx/rk-android14/kernel-6.1" "./include/linux/list_bl.h"
	.file	18 "/home/lyx/rk-android14/kernel-6.1" "./include/linux/lockref.h"
	.file	19 "/home/lyx/rk-android14/kernel-6.1" "./include/linux/mount.h"
	.file	20 "/home/lyx/rk-android14/kernel-6.1" "./include/linux/module.h"
	.file	21 "/home/lyx/rk-android14/kernel-6.1" "./include/linux/completion.h"
	.file	22 "/home/lyx/rk-android14/kernel-6.1" "./include/linux/swait.h"
	.file	23 "/home/lyx/rk-android14/kernel-6.1" "./include/linux/export.h"
	.file	24 "/home/lyx/rk-android14/kernel-6.1" "./include/linux/atomic/atomic-long.h"
	.file	25 "/home/lyx/rk-android14/kernel-6.1" "./include/linux/mutex.h"
	.file	26 "/home/lyx/rk-android14/kernel-6.1" "./include/linux/osq_lock.h"
	.file	27 "/home/lyx/rk-android14/kernel-6.1" "./include/linux/moduleparam.h"
	.file	28 "/home/lyx/rk-android14/kernel-6.1" "./arch/arm64/include/asm/extable.h"
	.file	29 "/home/lyx/rk-android14/kernel-6.1" "./include/linux/rbtree_types.h"
	.file	30 "/home/lyx/rk-android14/kernel-6.1" "./include/linux/rbtree_latch.h"
	.file	31 "/home/lyx/rk-android14/kernel-6.1" "./arch/arm64/include/asm/module.h"
	.file	32 "/home/lyx/rk-android14/kernel-6.1" "./include/uapi/linux/types.h"
	.file	33 "/home/lyx/rk-android14/kernel-6.1" "./include/asm-generic/bug.h"
	.file	34 "/home/lyx/rk-android14/kernel-6.1" "./include/uapi/linux/elf.h"
	.file	35 "/home/lyx/rk-android14/kernel-6.1" "./include/linux/tracepoint-defs.h"
	.file	36 "/home/lyx/rk-android14/kernel-6.1" "./include/linux/srcutree.h"
	.file	37 "/home/lyx/rk-android14/kernel-6.1" "./include/linux/rcu_segcblist.h"
	.file	38 "/home/lyx/rk-android14/kernel-6.1" "./include/linux/timer.h"
	.file	39 "/home/lyx/rk-android14/kernel-6.1" "./include/linux/workqueue.h"
	.file	40 "/home/lyx/rk-android14/kernel-6.1" "./include/linux/lockdep_types.h"
	.file	41 "/home/lyx/rk-android14/kernel-6.1" "./include/linux/jump_label.h"
	.file	42 "/home/lyx/rk-android14/kernel-6.1" "./include/linux/static_call_types.h"
	.file	43 "/home/lyx/rk-android14/kernel-6.1" "./include/linux/writeback.h"
	.file	44 "/home/lyx/rk-android14/kernel-6.1" "./include/linux/backing-dev-defs.h"
	.file	45 "/home/lyx/rk-android14/kernel-6.1" "./include/linux/refcount.h"
	.file	46 "/home/lyx/rk-android14/kernel-6.1" "./include/linux/kref.h"
	.file	47 "/home/lyx/rk-android14/kernel-6.1" "./include/linux/xarray.h"
	.file	48 "/home/lyx/rk-android14/kernel-6.1" "./include/linux/rwsem.h"
	.file	49 "/home/lyx/rk-android14/kernel-6.1" "./include/linux/wait.h"
	.file	50 "/home/lyx/rk-android14/kernel-6.1" "./include/linux/percpu_counter.h"
	.file	51 "/home/lyx/rk-android14/kernel-6.1" "./include/linux/flex_proportions.h"
	.file	52 "/home/lyx/rk-android14/kernel-6.1" "./include/linux/percpu-refcount.h"
	.file	53 "/home/lyx/rk-android14/kernel-6.1" "./include/linux/cgroup-defs.h"
	.file	54 "/home/lyx/rk-android14/kernel-6.1" "./include/linux/kernfs.h"
	.file	55 "/home/lyx/rk-android14/kernel-6.1" "./include/linux/llist.h"
	.file	56 "/home/lyx/rk-android14/kernel-6.1" "./include/linux/path.h"
	.file	57 "/home/lyx/rk-android14/kernel-6.1" "./include/linux/mm_types.h"
	.file	58 "/home/lyx/rk-android14/kernel-6.1" "./arch/arm64/include/asm/page.h"
	.file	59 "/home/lyx/rk-android14/kernel-6.1" "./include/linux/maple_tree.h"
	.file	60 "/home/lyx/rk-android14/kernel-6.1" "./arch/arm64/include/asm/pgtable-types.h"
	.file	61 "/home/lyx/rk-android14/kernel-6.1" "./include/linux/mm_types_task.h"
	.file	62 "/home/lyx/rk-android14/kernel-6.1" "./arch/arm64/include/asm/mmu.h"
	.file	63 "/home/lyx/rk-android14/kernel-6.1" "./arch/arm64/include/asm/thread_info.h"
	.file	64 "/home/lyx/rk-android14/kernel-6.1" "./include/linux/sched.h"
	.file	65 "/home/lyx/rk-android14/kernel-6.1" "./include/linux/smp_types.h"
	.file	66 "/home/lyx/rk-android14/kernel-6.1" "./include/linux/timerqueue.h"
	.file	67 "/home/lyx/rk-android14/kernel-6.1" "./include/linux/ktime.h"
	.file	68 "/home/lyx/rk-android14/kernel-6.1" "./include/linux/hrtimer.h"
	.file	69 "/home/lyx/rk-android14/kernel-6.1" "./include/linux/cpumask.h"
	.file	70 "/home/lyx/rk-android14/kernel-6.1" "./include/linux/plist.h"
	.file	71 "/home/lyx/rk-android14/kernel-6.1" "./include/linux/restart_block.h"
	.file	72 "/home/lyx/rk-android14/kernel-6.1" "./include/uapi/linux/time_types.h"
	.file	73 "/home/lyx/rk-android14/kernel-6.1" "./include/vdso/time32.h"
	.file	74 "/home/lyx/rk-android14/kernel-6.1" "./include/linux/pid.h"
	.file	75 "/home/lyx/rk-android14/kernel-6.1" "./include/linux/idr.h"
	.file	76 "/home/lyx/rk-android14/kernel-6.1" "./include/linux/pid_namespace.h"
	.file	77 "/home/lyx/rk-android14/kernel-6.1" "./include/linux/user_namespace.h"
	.file	78 "/home/lyx/rk-android14/kernel-6.1" "./include/linux/ns_common.h"
	.file	79 "/home/lyx/rk-android14/kernel-6.1" "./include/linux/key.h"
	.file	80 "/home/lyx/rk-android14/kernel-6.1" "./include/linux/time64.h"
	.file	81 "/home/lyx/rk-android14/kernel-6.1" "./include/linux/assoc_array.h"
	.file	82 "/home/lyx/rk-android14/kernel-6.1" "./include/linux/sysctl.h"
	.file	83 "/home/lyx/rk-android14/kernel-6.1" "./include/linux/posix-timers.h"
	.file	84 "/home/lyx/rk-android14/kernel-6.1" "./include/linux/cred.h"
	.file	85 "/home/lyx/rk-android14/kernel-6.1" "./include/linux/capability.h"
	.file	86 "/home/lyx/rk-android14/kernel-6.1" "./include/linux/sched/user.h"
	.file	87 "/home/lyx/rk-android14/kernel-6.1" "./include/linux/ratelimit_types.h"
	.file	88 "/home/lyx/rk-android14/kernel-6.1" "./include/linux/nsproxy.h"
	.file	89 "/home/lyx/rk-android14/kernel-6.1" "./include/linux/cgroup.h"
	.file	90 "/home/lyx/rk-android14/kernel-6.1" "./include/linux/sched/signal.h"
	.file	91 "/home/lyx/rk-android14/kernel-6.1" "./include/linux/signal_types.h"
	.file	92 "/home/lyx/rk-android14/kernel-6.1" "./include/uapi/asm-generic/signal.h"
	.file	93 "/home/lyx/rk-android14/kernel-6.1" "./include/linux/task_io_accounting.h"
	.file	94 "/home/lyx/rk-android14/kernel-6.1" "./include/uapi/linux/resource.h"
	.file	95 "/home/lyx/rk-android14/kernel-6.1" "./include/uapi/linux/taskstats.h"
	.file	96 "/home/lyx/rk-android14/kernel-6.1" "./include/uapi/asm-generic/signal-defs.h"
	.file	97 "/home/lyx/rk-android14/kernel-6.1" "./include/linux/seccomp.h"
	.file	98 "/home/lyx/rk-android14/kernel-6.1" "./include/linux/syscall_user_dispatch.h"
	.file	99 "/home/lyx/rk-android14/kernel-6.1" "./include/linux/blk_types.h"
	.file	100 "/home/lyx/rk-android14/kernel-6.1" "./include/linux/bvec.h"
	.file	101 "/home/lyx/rk-android14/kernel-6.1" "./include/linux/bio.h"
	.file	102 "/home/lyx/rk-android14/kernel-6.1" "./include/linux/mempool.h"
	.file	103 "/home/lyx/rk-android14/kernel-6.1" "./include/linux/swap.h"
	.file	104 "/home/lyx/rk-android14/kernel-6.1" "./include/linux/mmzone.h"
	.file	105 "/home/lyx/rk-android14/kernel-6.1" "./include/linux/list_nulls.h"
	.file	106 "/home/lyx/rk-android14/kernel-6.1" "./include/linux/cache.h"
	.file	107 "/home/lyx/rk-android14/kernel-6.1" "./include/linux/iocontext.h"
	.file	108 "/home/lyx/rk-android14/kernel-6.1" "./include/uapi/asm-generic/siginfo.h"
	.file	109 "/home/lyx/rk-android14/kernel-6.1" "./include/linux/nodemask.h"
	.file	110 "/home/lyx/rk-android14/kernel-6.1" "./include/asm-generic/compat.h"
	.file	111 "/home/lyx/rk-android14/kernel-6.1" "./include/linux/compat.h"
	.file	112 "/home/lyx/rk-android14/kernel-6.1" "./include/uapi/linux/rseq.h"
	.file	113 "/home/lyx/rk-android14/kernel-6.1" "./include/linux/memcontrol.h"
	.file	114 "/home/lyx/rk-android14/kernel-6.1" "./include/linux/page_counter.h"
	.file	115 "/home/lyx/rk-android14/kernel-6.1" "./include/linux/vmpressure.h"
	.file	116 "/home/lyx/rk-android14/kernel-6.1" "./include/linux/uprobes.h"
	.file	117 "/home/lyx/rk-android14/kernel-6.1" "./arch/arm64/include/asm/uprobes.h"
	.file	118 "/home/lyx/rk-android14/kernel-6.1" "./include/linux/vmalloc.h"
	.file	119 "/home/lyx/rk-android14/kernel-6.1" "./arch/arm64/include/asm/processor.h"
	.file	120 "/home/lyx/rk-android14/kernel-6.1" "./arch/arm64/include/uapi/asm/ptrace.h"
	.file	121 "/home/lyx/rk-android14/kernel-6.1" "./include/linux/memremap.h"
	.file	122 "/home/lyx/rk-android14/kernel-6.1" "./include/linux/mm.h"
	.file	123 "/home/lyx/rk-android14/kernel-6.1" "./include/asm-generic/pgtable-nop4d.h"
	.file	124 "/home/lyx/rk-android14/kernel-6.1" "./include/asm-generic/pgtable-nopud.h"
	.file	125 "/home/lyx/rk-android14/kernel-6.1" "./include/linux/range.h"
	.file	126 "/home/lyx/rk-android14/kernel-6.1" "./include/linux/pagemap.h"
	.file	127 "/home/lyx/rk-android14/kernel-6.1" "./include/linux/uio.h"
	.file	128 "/home/lyx/rk-android14/kernel-6.1" "./include/uapi/linux/uio.h"
	.file	129 "/home/lyx/rk-android14/kernel-6.1" "./include/asm-generic/qrwlock_types.h"
	.file	130 "/home/lyx/rk-android14/kernel-6.1" "./include/linux/rwlock_types.h"
	.file	131 "/home/lyx/rk-android14/kernel-6.1" "./include/linux/nfs_fs_i.h"
	.file	132 "/home/lyx/rk-android14/kernel-6.1" "./include/linux/seq_file.h"
	.file	133 "/home/lyx/rk-android14/kernel-6.1" "./include/linux/errseq.h"
	.file	134 "/home/lyx/rk-android14/kernel-6.1" "./include/linux/u64_stats_sync.h"
	.file	135 "/home/lyx/rk-android14/kernel-6.1" "./include/linux/sched/types.h"
	.file	136 "/home/lyx/rk-android14/kernel-6.1" "./include/linux/psi_types.h"
	.file	137 "/home/lyx/rk-android14/kernel-6.1" "./include/linux/bpf-cgroup-defs.h"
	.file	138 "/home/lyx/rk-android14/kernel-6.1" "./include/linux/quota.h"
	.file	139 "/home/lyx/rk-android14/kernel-6.1" "./include/linux/projid.h"
	.file	140 "/home/lyx/rk-android14/kernel-6.1" "./include/linux/shrinker.h"
	.file	141 "/home/lyx/rk-android14/kernel-6.1" "./include/linux/rcu_sync.h"
	.file	142 "/home/lyx/rk-android14/kernel-6.1" "./include/linux/percpu-rwsem.h"
	.file	143 "/home/lyx/rk-android14/kernel-6.1" "./include/linux/rcuwait.h"
	.file	144 "/home/lyx/rk-android14/kernel-6.1" "./include/linux/uuid.h"
	.file	145 "/home/lyx/rk-android14/kernel-6.1" "./include/linux/list_lru.h"
	.file	146 "/home/lyx/rk-android14/kernel-6.1" "./include/linux/delayed_call.h"
	.file	147 "/home/lyx/rk-android14/kernel-6.1" "./include/linux/mnt_idmapping.h"
	.file	148 "/home/lyx/rk-android14/kernel-6.1" "./include/linux/stat.h"
	.file	149 "/home/lyx/rk-android14/kernel-6.1" "./include/linux/migrate_mode.h"
	.file	150 "/home/lyx/rk-android14/kernel-6.1" "./include/linux/kobject_ns.h"
	.file	151 "/home/lyx/rk-android14/kernel-6.1" "./include/linux/device.h"
	.file	152 "/home/lyx/rk-android14/kernel-6.1" "./include/linux/pm.h"
	.file	153 "/home/lyx/rk-android14/kernel-6.1" "./include/linux/device/bus.h"
	.file	154 "/home/lyx/rk-android14/kernel-6.1" "./include/linux/device/driver.h"
	.file	155 "/home/lyx/rk-android14/kernel-6.1" "./include/linux/mod_devicetable.h"
	.file	156 "/home/lyx/rk-android14/kernel-6.1" "./include/linux/pm_wakeup.h"
	.file	157 "/home/lyx/rk-android14/kernel-6.1" "./include/linux/energy_model.h"
	.file	158 "/home/lyx/rk-android14/kernel-6.1" "./include/linux/irqdomain.h"
	.file	159 "/home/lyx/rk-android14/kernel-6.1" "./include/linux/of.h"
	.file	160 "/home/lyx/rk-android14/kernel-6.1" "./include/linux/fwnode.h"
	.file	161 "/home/lyx/rk-android14/kernel-6.1" "./include/linux/property.h"
	.file	162 "/home/lyx/rk-android14/kernel-6.1" "./include/linux/irq.h"
	.file	163 "/home/lyx/rk-android14/kernel-6.1" "./include/linux/interrupt.h"
	.file	164 "/home/lyx/rk-android14/kernel-6.1" "./include/linux/irqdesc.h"
	.file	165 "/home/lyx/rk-android14/kernel-6.1" "./include/linux/irqreturn.h"
	.file	166 "/home/lyx/rk-android14/kernel-6.1" "./include/linux/irqhandler.h"
	.file	167 "/home/lyx/rk-android14/kernel-6.1" "./arch/arm64/include/asm/device.h"
	.file	168 "/home/lyx/rk-android14/kernel-6.1" "./include/linux/device/class.h"
	.file	169 "/home/lyx/rk-android14/kernel-6.1" "./include/linux/ioport.h"
	.file	170 "/home/lyx/rk-android14/kernel-6.1" "drivers/gpu/drm/rockchip/ebc-dev/tcon/ebc_tcon.h"
	.file	171 "/home/lyx/rk-android14/kernel-6.1" "drivers/gpu/drm/rockchip/ebc-dev/ebc_panel.h"
	.file	172 "/home/lyx/rk-android14/kernel-6.1" "drivers/gpu/drm/rockchip/ebc-dev/pmic/ebc_pmic.h"
	.file	173 "/home/lyx/rk-android14/kernel-6.1" "./include/linux/thermal.h"
	.file	174 "/home/lyx/rk-android14/kernel-6.1" "./include/uapi/linux/thermal.h"
	.file	175 "/home/lyx/rk-android14/kernel-6.1" "drivers/gpu/drm/rockchip/ebc-dev/epdlut/epd_lut.h"
	.file	176 "/home/lyx/rk-android14/kernel-6.1" "drivers/gpu/drm/rockchip/ebc-dev/bufmanage/buf_manage.h"
	.file	177 "/home/lyx/rk-android14/kernel-6.1" "./include/linux/wakelock.h"
	.file	178 "/home/lyx/rk-android14/kernel-6.1" "./include/linux/dma-buf.h"
	.file	179 "/home/lyx/rk-android14/kernel-6.1" "./include/linux/scatterlist.h"
	.file	180 "/home/lyx/rk-android14/kernel-6.1" "./include/linux/dma-direction.h"
	.file	181 "/home/lyx/rk-android14/kernel-6.1" "./include/linux/iosys-map.h"
	.file	182 "/home/lyx/rk-android14/kernel-6.1" "./include/linux/dma-fence.h"
	.file	183 "/home/lyx/rk-android14/kernel-6.1" "./include/linux/semaphore.h"
	.file	184 "/home/lyx/rk-android14/kernel-6.1" "./include/linux/miscdevice.h"
	.file	185 "/home/lyx/rk-android14/kernel-6.1" "./include/linux/stddef.h"
	.file	186 "/home/lyx/rk-android14/kernel-6.1" "./include/linux/io.h"
	.file	187 "/home/lyx/rk-android14/kernel-6.1" "drivers/gpu/drm/rockchip/ebc-dev/ebc_dev.h"
	.file	188 "/home/lyx/rk-android14/kernel-6.1" "./include/linux/slab.h"
	.globl	refresh_new_image
	.p2align	2
	.type	refresh_new_image,@function
refresh_new_image:
.Lfunc_begin0:
	.loc	1 525 0
	.cfi_sections .debug_frame
	.cfi_startproc
	stp	x28, x27, [sp, #-80]!
	stp	x26, x25, [sp, #16]
	stp	x24, x23, [sp, #32]
	stp	x22, x21, [sp, #48]
	stp	x20, x19, [sp, #64]
	.cfi_def_cfa_offset 80
	.cfi_offset w19, -8
	.cfi_offset w20, -16
	.cfi_offset w21, -24
	.cfi_offset w22, -32
	.cfi_offset w23, -40
	.cfi_offset w24, -48
	.cfi_offset w25, -56
	.cfi_offset w26, -64
	.cfi_offset w27, -72
	.cfi_offset w28, -80
.Ltmp1:
	.loc	1 533 20 prologue_end
	ldp	w9, w8, [x5, #84]
.Ltmp2:
	.loc	1 533 26 is_stmt 0
	add	w10, w8, #7
	cmp	w8, #0
	csel	w11, w10, w8, lt
.Ltmp3:
	.loc	1 535 2 is_stmt 1
	cmp	w9, #1
	b.lt	.LBB0_125
.Ltmp4:
	.loc	1 0 0 is_stmt 0
	asr	w11, w11, #3
.Ltmp5:
	mov	w10, wzr
.Ltmp6:
	.loc	1 535 2
	sub	w14, w11, #1
	mov	w12, #-268435456
	mov	x13, #1030792151040
	add	x14, x14, #1
	mov	x15, #263882790666240
	mov	x16, #67553994410557440
	mov	x17, #-2305843009213693952
	mov	x5, #63050394783186944
.Ltmp7:
	.loc	1 0 2
	mov	x6, #246290604621824
	mov	x7, #962072674304
	mov	w19, #-536870912
	b	.LBB0_4
.Ltmp8:
.LBB0_2:
	.loc	1 536 3 is_stmt 1
	add	x3, x3, x14, lsl #3
.Ltmp9:
.LBB0_3:
	.loc	1 535 27
	add	w10, w10, #1
.Ltmp10:
	.loc	1 535 2 is_stmt 0
	cmp	w10, w9
	b.eq	.LBB0_125
.Ltmp11:
.LBB0_4:
	.loc	1 536 3 is_stmt 1
	cmp	w8, #8
	b.lt	.LBB0_3
.Ltmp12:
	.loc	1 0 3 is_stmt 0
	mov	w20, w11
	mov	x21, x3
.Ltmp13:
.LBB0_6:
	.loc	1 537 23 is_stmt 1
	ldr	x27, [x21], #8
.Ltmp14:
	.loc	1 539 21
	ldr	x26, [x1], #8
.Ltmp15:
	.loc	1 540 21
	ldr	x24, [x0]
.Ltmp16:
	.loc	1 541 20
	ldr	x22, [x2], #8
.Ltmp17:
	.loc	1 544 8
	cbnz	x27, .LBB0_24
.Ltmp18:
	.loc	1 546 5
	and	x27, x26, #0xf0
.Ltmp19:
	cmp	w27, #240
	b.ne	.LBB0_26
.Ltmp20:
	.loc	1 0 5 is_stmt 0
	mov	x23, xzr
	mov	w25, #255
.Ltmp21:
.LBB0_9:
	.loc	1 547 5 is_stmt 1
	and	x27, x26, #0xf000
.Ltmp22:
	cmp	w27, #15, lsl #12
	b.ne	.LBB0_28
.Ltmp23:
	.loc	1 547 5 is_stmt 0
	orr	x25, x25, #0xff00
.Ltmp24:
.LBB0_11:
	.loc	1 548 5 is_stmt 1
	and	x27, x26, #0xf00000
.Ltmp25:
	cmp	x27, #3840, lsl #12
	b.ne	.LBB0_30
.Ltmp26:
	.loc	1 548 5 is_stmt 0
	orr	x25, x25, #0xff0000
.Ltmp27:
.LBB0_13:
	.loc	1 549 5 is_stmt 1
	and	x27, x26, #0xf0000000
.Ltmp28:
	cmp	w27, w12
	b.ne	.LBB0_32
.Ltmp29:
	.loc	1 549 5 is_stmt 0
	orr	x25, x25, #0xff000000
.Ltmp30:
.LBB0_15:
	.loc	1 550 5 is_stmt 1
	and	x27, x26, #0xf000000000
.Ltmp31:
	cmp	x27, x13
	b.ne	.LBB0_34
.Ltmp32:
	.loc	1 550 5 is_stmt 0
	orr	x25, x25, #0xff00000000
.Ltmp33:
.LBB0_17:
	.loc	1 551 5 is_stmt 1
	and	x27, x26, #0xf00000000000
.Ltmp34:
	cmp	x27, x15
	b.ne	.LBB0_36
.Ltmp35:
	.loc	1 551 5 is_stmt 0
	orr	x25, x25, #0xff0000000000
.Ltmp36:
.LBB0_19:
	.loc	1 552 5 is_stmt 1
	and	x27, x26, #0xf0000000000000
.Ltmp37:
	cmp	x27, x16
	b.ne	.LBB0_38
.Ltmp38:
	.loc	1 552 5 is_stmt 0
	orr	x25, x25, #0xff000000000000
.Ltmp39:
.LBB0_21:
	.loc	1 553 5 is_stmt 1
	lsr	x27, x26, #60
	cmp	x27, #15
	b.lo	.LBB0_40
.Ltmp40:
.LBB0_22:
	.loc	1 0 0 is_stmt 0
	orr	x25, x25, #0xff00000000000000
.Ltmp41:
.LBB0_23:
	.loc	1 565 19 is_stmt 1
	bic	x24, x24, x25
.Ltmp42:
	.loc	1 566 36
	and	x22, x25, x22
.Ltmp43:
	.loc	1 566 19 is_stmt 0
	orr	x22, x24, x22
.Ltmp44:
	.loc	1 536 17 is_stmt 1
	subs	w20, w20, #1
.Ltmp45:
	.loc	1 567 16
	str	x23, [x4], #8
.Ltmp46:
	.loc	1 568 17
	str	x22, [x0], #8
.Ltmp47:
	.loc	1 536 3
	b.ne	.LBB0_6
	b	.LBB0_2
.Ltmp48:
.LBB0_24:
	.loc	1 0 0 is_stmt 0
	ldr	x23, [x4]
.Ltmp49:
	.loc	1 555 5 is_stmt 1
	tst	x27, #0xff
.Ltmp50:
	.loc	1 555 5 is_stmt 0
	b.eq	.LBB0_57
.Ltmp51:
	.loc	1 0 5
	mov	x25, xzr
	b	.LBB0_59
.Ltmp52:
.LBB0_26:
	.loc	1 546 5 is_stmt 1
	cbnz	w27, .LBB0_43
.Ltmp53:
	.loc	1 0 5 is_stmt 0
	mov	x25, xzr
.Ltmp54:
	.loc	1 546 5
	and	x24, x24, #0xffffffffffffff00
.Ltmp55:
	.loc	1 0 5
	mov	w23, #1
	b	.LBB0_9
.Ltmp56:
.LBB0_28:
	.loc	1 547 5 is_stmt 1
	and	x24, x24, #0xffffffffffff00ff
.Ltmp57:
	.loc	1 547 5 is_stmt 0
	cbnz	w27, .LBB0_45
.Ltmp58:
	.loc	1 547 5
	orr	x23, x23, #0x100
.Ltmp59:
	.loc	1 0 5
	b	.LBB0_11
.Ltmp60:
.LBB0_30:
	.loc	1 548 5 is_stmt 1
	and	x24, x24, #0xffffffffff00ffff
.Ltmp61:
	.loc	1 548 5 is_stmt 0
	cbnz	x27, .LBB0_47
.Ltmp62:
	.loc	1 548 5
	orr	x23, x23, #0x10000
.Ltmp63:
	.loc	1 0 5
	b	.LBB0_13
.Ltmp64:
.LBB0_32:
	.loc	1 549 5 is_stmt 1
	and	x24, x24, #0xffffffff00ffffff
.Ltmp65:
	.loc	1 549 5 is_stmt 0
	cbnz	w27, .LBB0_49
.Ltmp66:
	.loc	1 549 5
	orr	x23, x23, #0x1000000
.Ltmp67:
	.loc	1 0 5
	b	.LBB0_15
.Ltmp68:
.LBB0_34:
	.loc	1 550 5 is_stmt 1
	and	x24, x24, #0xffffff00ffffffff
.Ltmp69:
	.loc	1 550 5 is_stmt 0
	cbnz	x27, .LBB0_51
.Ltmp70:
	.loc	1 550 5
	orr	x23, x23, #0x100000000
.Ltmp71:
	.loc	1 0 5
	b	.LBB0_17
.Ltmp72:
.LBB0_36:
	.loc	1 551 5 is_stmt 1
	and	x24, x24, #0xffff00ffffffffff
.Ltmp73:
	.loc	1 551 5 is_stmt 0
	cbnz	x27, .LBB0_53
.Ltmp74:
	.loc	1 551 5
	orr	x23, x23, #0x10000000000
.Ltmp75:
	.loc	1 0 5
	b	.LBB0_19
.Ltmp76:
.LBB0_38:
	.loc	1 552 5 is_stmt 1
	and	x24, x24, #0xff00ffffffffffff
.Ltmp77:
	.loc	1 552 5 is_stmt 0
	cbnz	x27, .LBB0_55
.Ltmp78:
	.loc	1 552 5
	orr	x23, x23, #0x1000000000000
.Ltmp79:
	.loc	1 0 5
	b	.LBB0_21
.Ltmp80:
.LBB0_40:
	and	x26, x26, #0xf000000000000000
.Ltmp81:
	.loc	1 553 5 is_stmt 1
	cmp	x26, x17
	b.eq	.LBB0_82
.Ltmp82:
	cbz	x26, .LBB0_81
.Ltmp83:
.LBB0_42:
	.loc	1 0 0 is_stmt 0
	and	x24, x24, #0xffffffffffffff
.Ltmp84:
	orr	x24, x24, x26
.Ltmp85:
	b	.LBB0_23
.Ltmp86:
.LBB0_43:
	.loc	1 546 5 is_stmt 1
	cmp	w27, #224
	b.ne	.LBB0_83
.Ltmp87:
	.loc	1 546 5 is_stmt 0
	and	x23, x24, #0xffffffffffffff00
.Ltmp88:
	.loc	1 0 5
	mov	x25, xzr
	.loc	1 546 5
	orr	x24, x23, #0xf0
.Ltmp89:
	.loc	1 0 5
	mov	w23, #1
	b	.LBB0_9
.Ltmp90:
.LBB0_45:
	.loc	1 547 5 is_stmt 1
	cmp	w27, #14, lsl #12
	b.ne	.LBB0_84
.Ltmp91:
	.loc	1 547 5 is_stmt 0
	orr	x24, x24, #0xf000
.Ltmp92:
	orr	x23, x23, #0x100
.Ltmp93:
	.loc	1 0 5
	b	.LBB0_11
.Ltmp94:
.LBB0_47:
	.loc	1 548 5 is_stmt 1
	cmp	x27, #3584, lsl #12
	b.ne	.LBB0_85
.Ltmp95:
	.loc	1 548 5 is_stmt 0
	orr	x24, x24, #0xf00000
.Ltmp96:
	orr	x23, x23, #0x10000
.Ltmp97:
	.loc	1 0 5
	b	.LBB0_13
.Ltmp98:
.LBB0_49:
	.loc	1 549 5 is_stmt 1
	cmp	w27, w19
	b.ne	.LBB0_86
.Ltmp99:
	.loc	1 549 5 is_stmt 0
	orr	x24, x24, #0xf0000000
.Ltmp100:
	orr	x23, x23, #0x1000000
.Ltmp101:
	.loc	1 0 5
	b	.LBB0_15
.Ltmp102:
.LBB0_51:
	.loc	1 550 5 is_stmt 1
	cmp	x27, x7
	b.ne	.LBB0_87
.Ltmp103:
	.loc	1 550 5 is_stmt 0
	orr	x24, x24, #0xf000000000
.Ltmp104:
	orr	x23, x23, #0x100000000
.Ltmp105:
	.loc	1 0 5
	b	.LBB0_17
.Ltmp106:
.LBB0_53:
	.loc	1 551 5 is_stmt 1
	cmp	x27, x6
	b.ne	.LBB0_88
.Ltmp107:
	.loc	1 551 5 is_stmt 0
	orr	x24, x24, #0xf00000000000
.Ltmp108:
	orr	x23, x23, #0x10000000000
.Ltmp109:
	.loc	1 0 5
	b	.LBB0_19
.Ltmp110:
.LBB0_55:
	.loc	1 552 5 is_stmt 1
	cmp	x27, x5
	b.ne	.LBB0_89
.Ltmp111:
	.loc	1 552 5 is_stmt 0
	orr	x24, x24, #0xf0000000000000
.Ltmp112:
	orr	x23, x23, #0x1000000000000
.Ltmp113:
	.loc	1 0 5
	b	.LBB0_21
.Ltmp114:
.LBB0_57:
	.loc	1 555 5 is_stmt 1
	and	x23, x23, #0xffffffffffffff00
.Ltmp115:
	.loc	1 555 5 is_stmt 0
	and	x28, x26, #0xf0
.Ltmp116:
	cmp	w28, #240
	b.ne	.LBB0_90
.Ltmp117:
	.loc	1 0 5
	mov	w25, #255
.Ltmp118:
.LBB0_59:
	.loc	1 556 5 is_stmt 1
	tst	x27, #0xff00
.Ltmp119:
	.loc	1 556 5 is_stmt 0
	b.eq	.LBB0_66
.Ltmp120:
	.loc	1 557 5 is_stmt 1
	tst	x27, #0xff0000
.Ltmp121:
	.loc	1 557 5 is_stmt 0
	b.eq	.LBB0_68
.Ltmp122:
.LBB0_61:
	.loc	1 558 5 is_stmt 1
	tst	x27, #0xff000000
.Ltmp123:
	.loc	1 558 5 is_stmt 0
	b.eq	.LBB0_70
.Ltmp124:
.LBB0_62:
	.loc	1 559 5 is_stmt 1
	tst	x27, #0xff00000000
.Ltmp125:
	.loc	1 559 5 is_stmt 0
	b.eq	.LBB0_72
.Ltmp126:
.LBB0_63:
	.loc	1 560 5 is_stmt 1
	tst	x27, #0xff0000000000
.Ltmp127:
	.loc	1 560 5 is_stmt 0
	b.eq	.LBB0_74
.Ltmp128:
.LBB0_64:
	.loc	1 561 5 is_stmt 1
	tst	x27, #0xff000000000000
.Ltmp129:
	.loc	1 561 5 is_stmt 0
	b.eq	.LBB0_76
.Ltmp130:
.LBB0_65:
	.loc	1 562 5 is_stmt 1
	lsr	x27, x27, #56
.Ltmp131:
	cbnz	x27, .LBB0_23
	b	.LBB0_78
.Ltmp132:
.LBB0_66:
	.loc	1 556 5
	and	x23, x23, #0xffffffffffff00ff
.Ltmp133:
	.loc	1 556 5 is_stmt 0
	and	x28, x26, #0xf000
.Ltmp134:
	cmp	w28, #15, lsl #12
	b.ne	.LBB0_92
.Ltmp135:
	.loc	1 556 5
	orr	x25, x25, #0xff00
.Ltmp136:
	.loc	1 557 5 is_stmt 1
	tst	x27, #0xff0000
.Ltmp137:
	.loc	1 557 5 is_stmt 0
	b.ne	.LBB0_61
.Ltmp138:
.LBB0_68:
	.loc	1 557 5
	and	x23, x23, #0xffffffffff00ffff
.Ltmp139:
	.loc	1 557 5
	and	x28, x26, #0xf00000
.Ltmp140:
	cmp	x28, #3840, lsl #12
	b.ne	.LBB0_96
.Ltmp141:
	.loc	1 557 5
	orr	x25, x25, #0xff0000
.Ltmp142:
	.loc	1 558 5 is_stmt 1
	tst	x27, #0xff000000
.Ltmp143:
	.loc	1 558 5 is_stmt 0
	b.ne	.LBB0_62
.Ltmp144:
.LBB0_70:
	.loc	1 558 5
	and	x23, x23, #0xffffffff00ffffff
.Ltmp145:
	.loc	1 558 5
	and	x28, x26, #0xf0000000
.Ltmp146:
	cmp	w28, w12
	b.ne	.LBB0_100
.Ltmp147:
	.loc	1 558 5
	orr	x25, x25, #0xff000000
.Ltmp148:
	.loc	1 559 5 is_stmt 1
	tst	x27, #0xff00000000
.Ltmp149:
	.loc	1 559 5 is_stmt 0
	b.ne	.LBB0_63
.Ltmp150:
.LBB0_72:
	.loc	1 559 5
	and	x23, x23, #0xffffff00ffffffff
.Ltmp151:
	.loc	1 559 5
	and	x28, x26, #0xf000000000
.Ltmp152:
	cmp	x28, x13
	b.ne	.LBB0_104
.Ltmp153:
	.loc	1 559 5
	orr	x25, x25, #0xff00000000
.Ltmp154:
	.loc	1 560 5 is_stmt 1
	tst	x27, #0xff0000000000
.Ltmp155:
	.loc	1 560 5 is_stmt 0
	b.ne	.LBB0_64
.Ltmp156:
.LBB0_74:
	.loc	1 560 5
	and	x23, x23, #0xffff00ffffffffff
.Ltmp157:
	.loc	1 560 5
	and	x28, x26, #0xf00000000000
.Ltmp158:
	cmp	x28, x15
	b.ne	.LBB0_108
.Ltmp159:
	.loc	1 560 5
	orr	x25, x25, #0xff0000000000
.Ltmp160:
	.loc	1 561 5 is_stmt 1
	tst	x27, #0xff000000000000
.Ltmp161:
	.loc	1 561 5 is_stmt 0
	b.ne	.LBB0_65
.Ltmp162:
.LBB0_76:
	.loc	1 561 5
	and	x23, x23, #0xff00ffffffffffff
.Ltmp163:
	.loc	1 561 5
	and	x28, x26, #0xf0000000000000
.Ltmp164:
	cmp	x28, x16
	b.ne	.LBB0_112
.Ltmp165:
	.loc	1 561 5
	orr	x25, x25, #0xff000000000000
.Ltmp166:
	.loc	1 562 5 is_stmt 1
	lsr	x27, x27, #56
.Ltmp167:
	cbnz	x27, .LBB0_23
.Ltmp168:
.LBB0_78:
	.loc	1 562 5 is_stmt 0
	and	x23, x23, #0xffffffffffffff
.Ltmp169:
	.loc	1 562 5
	lsr	x27, x26, #60
	cmp	x27, #15
	b.hs	.LBB0_22
.Ltmp170:
	.loc	1 0 0
	and	x26, x26, #0xf000000000000000
.Ltmp171:
	.loc	1 562 5
	cmp	x26, x17
	b.eq	.LBB0_82
.Ltmp172:
	cbnz	x26, .LBB0_42
.Ltmp173:
.LBB0_81:
	.loc	1 0 0
	and	x24, x24, #0xffffffffffffff
.Ltmp174:
	orr	x23, x23, #0x100000000000000
.Ltmp175:
	b	.LBB0_23
.Ltmp176:
.LBB0_82:
	mov	x26, #-1152921504606846976
	orr	x23, x23, #0x100000000000000
.Ltmp177:
	bfxil	x26, x24, #0, #56
.Ltmp178:
	mov	x24, x26
.Ltmp179:
	b	.LBB0_23
.Ltmp180:
.LBB0_83:
	.loc	1 546 5 is_stmt 1
	and	x24, x24, #0xffffffffffffff00
.Ltmp181:
	.loc	1 0 5 is_stmt 0
	mov	x23, xzr
	mov	x25, xzr
	.loc	1 546 5
	orr	x24, x24, x27
.Ltmp182:
	.loc	1 0 5
	b	.LBB0_9
.Ltmp183:
.LBB0_84:
	.loc	1 547 5 is_stmt 1
	orr	x24, x24, x27
.Ltmp184:
	.loc	1 0 5 is_stmt 0
	b	.LBB0_11
.Ltmp185:
.LBB0_85:
	.loc	1 548 5 is_stmt 1
	orr	x24, x24, x27
.Ltmp186:
	.loc	1 0 5 is_stmt 0
	b	.LBB0_13
.Ltmp187:
.LBB0_86:
	.loc	1 549 5 is_stmt 1
	orr	x24, x24, x27
.Ltmp188:
	.loc	1 0 5 is_stmt 0
	b	.LBB0_15
.Ltmp189:
.LBB0_87:
	.loc	1 550 5 is_stmt 1
	orr	x24, x24, x27
.Ltmp190:
	.loc	1 0 5 is_stmt 0
	b	.LBB0_17
.Ltmp191:
.LBB0_88:
	.loc	1 551 5 is_stmt 1
	orr	x24, x24, x27
.Ltmp192:
	.loc	1 0 5 is_stmt 0
	b	.LBB0_19
.Ltmp193:
.LBB0_89:
	.loc	1 552 5 is_stmt 1
	orr	x24, x24, x27
.Ltmp194:
	.loc	1 0 5 is_stmt 0
	b	.LBB0_21
.Ltmp195:
.LBB0_90:
	.loc	1 555 5 is_stmt 1
	cbnz	w28, .LBB0_116
.Ltmp196:
	.loc	1 0 5 is_stmt 0
	mov	x25, xzr
.Ltmp197:
	.loc	1 555 5
	and	x24, x24, #0xffffffffffffff00
.Ltmp198:
	orr	x23, x23, #0x1
.Ltmp199:
	.loc	1 0 5
	b	.LBB0_59
.Ltmp200:
.LBB0_92:
	.loc	1 556 5 is_stmt 1
	and	x24, x24, #0xffffffffffff00ff
.Ltmp201:
	.loc	1 556 5 is_stmt 0
	cbz	w28, .LBB0_95
.Ltmp202:
	cmp	w28, #14, lsl #12
	b.ne	.LBB0_118
.Ltmp203:
	.loc	1 556 5
	orr	x24, x24, #0xf000
.Ltmp204:
.LBB0_95:
	.loc	1 0 0
	orr	x23, x23, #0x100
.Ltmp205:
	.loc	1 557 5 is_stmt 1
	tst	x27, #0xff0000
.Ltmp206:
	.loc	1 557 5 is_stmt 0
	b.ne	.LBB0_61
	b	.LBB0_68
.Ltmp207:
.LBB0_96:
	.loc	1 557 5
	and	x24, x24, #0xffffffffff00ffff
.Ltmp208:
	.loc	1 557 5
	cbz	x28, .LBB0_99
.Ltmp209:
	cmp	x28, #3584, lsl #12
	b.ne	.LBB0_119
.Ltmp210:
	.loc	1 557 5
	orr	x24, x24, #0xf00000
.Ltmp211:
.LBB0_99:
	.loc	1 0 0
	orr	x23, x23, #0x10000
.Ltmp212:
	.loc	1 558 5 is_stmt 1
	tst	x27, #0xff000000
.Ltmp213:
	.loc	1 558 5 is_stmt 0
	b.ne	.LBB0_62
	b	.LBB0_70
.Ltmp214:
.LBB0_100:
	.loc	1 558 5
	and	x24, x24, #0xffffffff00ffffff
.Ltmp215:
	.loc	1 558 5
	cbz	w28, .LBB0_103
.Ltmp216:
	cmp	w28, w19
	b.ne	.LBB0_120
.Ltmp217:
	.loc	1 558 5
	orr	x24, x24, #0xf0000000
.Ltmp218:
.LBB0_103:
	.loc	1 0 0
	orr	x23, x23, #0x1000000
.Ltmp219:
	.loc	1 559 5 is_stmt 1
	tst	x27, #0xff00000000
.Ltmp220:
	.loc	1 559 5 is_stmt 0
	b.ne	.LBB0_63
	b	.LBB0_72
.Ltmp221:
.LBB0_104:
	.loc	1 559 5
	and	x24, x24, #0xffffff00ffffffff
.Ltmp222:
	.loc	1 559 5
	cbz	x28, .LBB0_107
.Ltmp223:
	cmp	x28, x7
	b.ne	.LBB0_121
.Ltmp224:
	.loc	1 559 5
	orr	x24, x24, #0xf000000000
.Ltmp225:
.LBB0_107:
	.loc	1 0 0
	orr	x23, x23, #0x100000000
.Ltmp226:
	.loc	1 560 5 is_stmt 1
	tst	x27, #0xff0000000000
.Ltmp227:
	.loc	1 560 5 is_stmt 0
	b.ne	.LBB0_64
	b	.LBB0_74
.Ltmp228:
.LBB0_108:
	.loc	1 560 5
	and	x24, x24, #0xffff00ffffffffff
.Ltmp229:
	.loc	1 560 5
	cbz	x28, .LBB0_111
.Ltmp230:
	cmp	x28, x6
	b.ne	.LBB0_122
.Ltmp231:
	.loc	1 560 5
	orr	x24, x24, #0xf00000000000
.Ltmp232:
.LBB0_111:
	.loc	1 0 0
	orr	x23, x23, #0x10000000000
.Ltmp233:
	.loc	1 561 5 is_stmt 1
	tst	x27, #0xff000000000000
.Ltmp234:
	.loc	1 561 5 is_stmt 0
	b.ne	.LBB0_65
	b	.LBB0_76
.Ltmp235:
.LBB0_112:
	.loc	1 561 5
	and	x24, x24, #0xff00ffffffffffff
.Ltmp236:
	.loc	1 561 5
	cbz	x28, .LBB0_115
.Ltmp237:
	cmp	x28, x5
	b.ne	.LBB0_123
.Ltmp238:
	.loc	1 561 5
	orr	x24, x24, #0xf0000000000000
.Ltmp239:
.LBB0_115:
	.loc	1 0 0
	orr	x23, x23, #0x1000000000000
.Ltmp240:
	.loc	1 562 5 is_stmt 1
	lsr	x27, x27, #56
.Ltmp241:
	cbnz	x27, .LBB0_23
	b	.LBB0_78
.Ltmp242:
.LBB0_116:
	.loc	1 555 5
	cmp	w28, #224
	b.ne	.LBB0_124
.Ltmp243:
	.loc	1 555 5 is_stmt 0
	and	x24, x24, #0xffffffffffffff00
.Ltmp244:
	.loc	1 0 5
	mov	x25, xzr
	.loc	1 555 5
	orr	x24, x24, #0xf0
.Ltmp245:
	orr	x23, x23, #0x1
.Ltmp246:
	.loc	1 0 5
	b	.LBB0_59
.Ltmp247:
.LBB0_118:
	.loc	1 556 5 is_stmt 1
	orr	x24, x24, x28
.Ltmp248:
	.loc	1 557 5
	tst	x27, #0xff0000
.Ltmp249:
	.loc	1 557 5 is_stmt 0
	b.ne	.LBB0_61
	b	.LBB0_68
.Ltmp250:
.LBB0_119:
	.loc	1 557 5
	orr	x24, x24, x28
.Ltmp251:
	.loc	1 558 5 is_stmt 1
	tst	x27, #0xff000000
.Ltmp252:
	.loc	1 558 5 is_stmt 0
	b.ne	.LBB0_62
	b	.LBB0_70
.Ltmp253:
.LBB0_120:
	.loc	1 558 5
	orr	x24, x24, x28
.Ltmp254:
	.loc	1 559 5 is_stmt 1
	tst	x27, #0xff00000000
.Ltmp255:
	.loc	1 559 5 is_stmt 0
	b.ne	.LBB0_63
	b	.LBB0_72
.Ltmp256:
.LBB0_121:
	.loc	1 559 5
	orr	x24, x24, x28
.Ltmp257:
	.loc	1 560 5 is_stmt 1
	tst	x27, #0xff0000000000
.Ltmp258:
	.loc	1 560 5 is_stmt 0
	b.ne	.LBB0_64
	b	.LBB0_74
.Ltmp259:
.LBB0_122:
	.loc	1 560 5
	orr	x24, x24, x28
.Ltmp260:
	.loc	1 561 5 is_stmt 1
	tst	x27, #0xff000000000000
.Ltmp261:
	.loc	1 561 5 is_stmt 0
	b.ne	.LBB0_65
	b	.LBB0_76
.Ltmp262:
.LBB0_123:
	.loc	1 561 5
	orr	x24, x24, x28
.Ltmp263:
	.loc	1 562 5 is_stmt 1
	lsr	x27, x27, #56
.Ltmp264:
	cbnz	x27, .LBB0_23
	b	.LBB0_78
.Ltmp265:
.LBB0_124:
	.loc	1 555 5
	and	x24, x24, #0xffffffffffffff00
.Ltmp266:
	.loc	1 0 5 is_stmt 0
	mov	x25, xzr
	.loc	1 555 5
	orr	x24, x24, x28
.Ltmp267:
	.loc	1 0 5
	b	.LBB0_59
.Ltmp268:
.LBB0_125:
	.loc	1 571 1 is_stmt 1
	ldp	x20, x19, [sp, #64]
	ldp	x22, x21, [sp, #48]
	ldp	x24, x23, [sp, #32]
	ldp	x26, x25, [sp, #16]
	ldp	x28, x27, [sp], #80
	ret
.Ltmp269:
.Lfunc_end0:
	.size	refresh_new_image, .Lfunc_end0-refresh_new_image
	.cfi_endproc

	.globl	refresh_new_image_auto
	.p2align	2
	.type	refresh_new_image_auto,@function
refresh_new_image_auto:
.Lfunc_begin1:
	.loc	1 574 0
	.cfi_startproc
	.loc	1 581 20 prologue_end
	ldp	w9, w8, [x3, #84]
.Ltmp270:
	.loc	1 581 26 is_stmt 0
	add	w10, w8, #7
	cmp	w8, #0
	csel	w11, w10, w8, lt
.Ltmp271:
	.loc	1 583 2 is_stmt 1
	cmp	w9, #1
	b.lt	.LBB1_8
.Ltmp272:
	.loc	1 0 2 is_stmt 0
	mov	w10, wzr
	asr	w11, w11, #3
.Ltmp273:
	mov	w12, #255
	b	.LBB1_3
.Ltmp274:
.LBB1_2:
	.loc	1 583 27
	add	w10, w10, #1
.Ltmp275:
	.loc	1 583 2
	cmp	w10, w9
	b.eq	.LBB1_8
.Ltmp276:
.LBB1_3:
	.loc	1 584 3 is_stmt 1
	cmp	w8, #8
	b.lt	.LBB1_2
.Ltmp277:
	.loc	1 0 3 is_stmt 0
	mov	w13, w11
	b	.LBB1_6
.Ltmp278:
.LBB1_5:
	add	x0, x0, #8
.Ltmp279:
	.loc	1 584 17
	subs	w13, w13, #1
.Ltmp280:
	.loc	1 584 3
	b.eq	.LBB1_2
.Ltmp281:
.LBB1_6:
	.loc	1 586 20 is_stmt 1
	ldr	x14, [x1], #8
.Ltmp282:
	.loc	1 587 21
	ldr	x15, [x0]
.Ltmp283:
	.loc	1 585 23
	ldr	x16, [x2], #8
.Ltmp284:
	.loc	1 590 8
	cmp	x14, x15
	b.eq	.LBB1_5
.Ltmp285:
	.loc	1 595 8
	tst	x16, #0xff
	csel	x17, x12, xzr, eq
.Ltmp286:
	.loc	1 599 8
	tst	x16, #0xff00
	orr	x3, x17, #0xff00
.Ltmp287:
	csel	x17, x3, x17, eq
.Ltmp288:
	.loc	1 603 8
	tst	x16, #0xff0000
	orr	x3, x17, #0xff0000
	csel	x17, x3, x17, eq
.Ltmp289:
	.loc	1 607 8
	tst	x16, #0xff000000
	orr	x3, x17, #0xff000000
	csel	x17, x3, x17, eq
.Ltmp290:
	.loc	1 611 8
	tst	x16, #0xff00000000
	orr	x3, x17, #0xff00000000
	csel	x17, x3, x17, eq
.Ltmp291:
	.loc	1 615 8
	tst	x16, #0xff0000000000
	orr	x3, x17, #0xff0000000000
	csel	x17, x3, x17, eq
.Ltmp292:
	.loc	1 619 8
	tst	x16, #0xff000000000000
	orr	x3, x17, #0xff000000000000
	.loc	1 623 8
	lsr	x16, x16, #56
.Ltmp293:
	.loc	1 619 8
	csel	x17, x3, x17, eq
.Ltmp294:
	.loc	1 623 8
	cmp	x16, #0
	orr	x3, x17, #0xff00000000000000
	csel	x16, x3, x17, eq
.Ltmp295:
	.loc	1 626 19
	bic	x15, x15, x16
.Ltmp296:
	.loc	1 627 36
	and	x14, x16, x14
.Ltmp297:
	.loc	1 627 19 is_stmt 0
	orr	x14, x15, x14
.Ltmp298:
	.loc	1 628 17 is_stmt 1
	str	x14, [x0]
	b	.LBB1_5
.Ltmp299:
.LBB1_8:
	.loc	1 631 1
	ret
.Ltmp300:
.Lfunc_end1:
	.size	refresh_new_image_auto, .Lfunc_end1-refresh_new_image_auto
	.cfi_endproc

	.section	.exit.text,"ax",@progbits
	.p2align	2
	.type	ebc_exit,@function
ebc_exit:
.Lfunc_begin2:
	.loc	1 3893 0
	.cfi_startproc
	str	x30, [x18], #8
	.cfi_escape 0x16, 0x12, 0x02, 0x82, 0x78
	stp	x29, x30, [sp, #-16]!
	mov	x29, sp
	.cfi_def_cfa w29, 16
	.cfi_offset w30, -8
	.cfi_offset w29, -16
.Ltmp301:
	.loc	1 3894 9 prologue_end
	adrp	x0, ebc_driver
	add	x0, x0, :lo12:ebc_driver
	bl	platform_driver_unregister
.Ltmp302:
	.loc	1 3894 2 is_stmt 0
	ldp	x29, x30, [sp], #16
	ldr	x30, [x18, #-8]!
	ret
.Ltmp303:
.Lfunc_end2:
	.size	ebc_exit, .Lfunc_end2-ebc_exit
	.cfi_endproc

	.section	.init.text,"ax",@progbits
	.p2align	2
	.type	ebc_init,@function
ebc_init:
.Lfunc_begin3:
	.loc	1 3888 0 is_stmt 1
	.cfi_startproc
	str	x30, [x18], #8
	.cfi_escape 0x16, 0x12, 0x02, 0x82, 0x78
	stp	x29, x30, [sp, #-16]!
	mov	x29, sp
	.cfi_def_cfa w29, 16
	.cfi_offset w30, -8
	.cfi_offset w29, -16
.Ltmp304:
	.loc	1 3889 9 prologue_end
	adrp	x0, ebc_driver
	mov	x1, xzr
	add	x0, x0, :lo12:ebc_driver
	bl	__platform_driver_register
.Ltmp305:
	.loc	1 3889 2 is_stmt 0
	ldp	x29, x30, [sp], #16
	ldr	x30, [x18, #-8]!
	ret
.Ltmp306:
.Lfunc_end3:
	.size	ebc_init, .Lfunc_end3-ebc_init
	.cfi_endproc

	.text
	.p2align	2
	.type	ebc_probe,@function
ebc_probe:
.Lfunc_begin4:
	.loc	1 3669 0 is_stmt 1
	.cfi_startproc
	sub	sp, sp, #208
	str	x30, [x18], #8
	.cfi_escape 0x16, 0x12, 0x02, 0x82, 0x78
	stp	x29, x30, [sp, #112]
	add	x29, sp, #112
	stp	x28, x27, [sp, #128]
	stp	x26, x25, [sp, #144]
	stp	x24, x23, [sp, #160]
	stp	x22, x21, [sp, #176]
	stp	x20, x19, [sp, #192]
	.cfi_def_cfa w29, 96
	.cfi_offset w19, -8
	.cfi_offset w20, -16
	.cfi_offset w21, -24
	.cfi_offset w22, -32
	.cfi_offset w23, -40
	.cfi_offset w24, -48
	.cfi_offset w25, -56
	.cfi_offset w26, -64
	.cfi_offset w27, -72
	.cfi_offset w28, -80
	.cfi_offset w30, -88
	.cfi_offset w29, -96
	mrs	x8, SP_EL0
.Ltmp307:
	.loc	1 3670 30 prologue_end
	add	x19, x0, #16
.Ltmp308:
	.loc	1 0 30 is_stmt 0
	mov	x20, x0
.Ltmp309:
	ldr	x8, [x8, #1584]
.Ltmp310:
	.loc	151 210 9 is_stmt 1
	mov	x0, x19
	mov	w1, #840
	mov	w2, #3520
	stur	x8, [x29, #-8]
.Ltmp311:
	.loc	1 3680 14
	str	xzr, [sp, #16]
.Ltmp312:
	.loc	1 3683 6
	str	wzr, [sp, #12]
.Ltmp313:
	.loc	151 210 9
	bl	devm_kmalloc
.Ltmp314:
	.loc	1 3687 6
	cbz	x0, .LBB4_6
.Ltmp315:
	.loc	1 3691 13
	adrp	x8, global_ebc
.Ltmp316:
	.loc	159 916 6
	adrp	x1, .L.str.1
.Ltmp317:
	.loc	1 0 0 is_stmt 0
	mov	x21, x0
.Ltmp318:
	.loc	1 3690 11 is_stmt 1
	str	x19, [x0]
.Ltmp319:
	.loc	159 916 6
	add	x1, x1, :lo12:.L.str.1
.Ltmp320:
	add	x5, sp, #24
.Ltmp321:
	.loc	1 3691 13
	str	x0, [x8, :lo12:global_ebc]
	.loc	1 3693 40
	ldr	x0, [x20, #672]
.Ltmp322:
	.loc	159 916 6
	mov	x2, xzr
	mov	w3, wzr
	mov	w4, wzr
.Ltmp323:
	.loc	159 914 25
	stp	xzr, xzr, [sp, #88]
	stp	xzr, xzr, [sp, #72]
	stp	xzr, xzr, [sp, #56]
	stp	xzr, xzr, [sp, #40]
	stp	xzr, xzr, [sp, #24]
.Ltmp324:
	.loc	159 916 6
	bl	__of_parse_phandle_with_args
.Ltmp325:
	.loc	1 3694 6
	cbnz	w0, .LBB4_9
.Ltmp326:
	.loc	1 0 0 is_stmt 0
	ldr	x0, [sp, #24]
	.loc	1 3694 6
	cbz	x0, .LBB4_9
.Ltmp327:
	.loc	1 3699 18 is_stmt 1
	bl	of_find_device_by_node
.Ltmp328:
	.loc	1 3701 6
	cbz	x0, .LBB4_5
.Ltmp329:
	.loc	151 773 14
	ldr	x8, [x0, #136]
.Ltmp330:
	.loc	1 3704 12
	str	x8, [x21, #8]
	.loc	1 3705 6
	cbnz	x8, .LBB4_11
.Ltmp331:
.LBB4_5:
	.loc	1 0 6 is_stmt 0
	mov	w22, #-517
	b	.LBB4_7
.Ltmp332:
.LBB4_6:
	mov	w22, #-12
.Ltmp333:
.LBB4_7:
	mrs	x8, SP_EL0
	ldr	x8, [x8, #1584]
	ldur	x9, [x29, #-8]
	cmp	x8, x9
	b.ne	.LBB4_44
.Ltmp334:
	.loc	1 3820 1 is_stmt 1
	mov	w0, w22
	ldp	x20, x19, [sp, #192]
.Ltmp335:
	ldp	x22, x21, [sp, #176]
	ldp	x24, x23, [sp, #160]
	ldp	x26, x25, [sp, #144]
	ldp	x28, x27, [sp, #128]
	ldp	x29, x30, [sp, #112]
	ldr	x30, [x18, #-8]!
	add	sp, sp, #208
	ret
.Ltmp336:
.LBB4_9:
	.loc	1 3695 3
	adrp	x1, .L.str.2
	add	x1, x1, :lo12:.L.str.2
.Ltmp337:
.LBB4_10:
	.loc	1 0 0 is_stmt 0
	mov	x0, x19
	bl	_dev_err
.Ltmp338:
	mov	w22, #-19
	b	.LBB4_7
.Ltmp339:
.LBB4_11:
	.loc	1 3707 30 is_stmt 1
	adrp	x9, frame_done_callback
	.loc	1 3709 9
	adrp	x1, .L.str.3
	.loc	1 3707 30
	add	x9, x9, :lo12:frame_done_callback
	.loc	1 3709 9
	add	x1, x1, :lo12:.L.str.3
	add	x2, sp, #12
	.loc	1 3707 30
	str	x9, [x8, #136]
	.loc	1 3709 30
	ldr	x0, [x20, #672]
.Ltmp340:
	.loc	1 3709 9 is_stmt 0
	bl	of_get_property
.Ltmp341:
	.loc	1 3710 7 is_stmt 1
	ldr	w8, [sp, #12]
.Ltmp342:
	asr	w9, w8, #2
.Ltmp343:
	.loc	1 3711 6
	cmp	w8, #3
	.loc	1 3710 7
	str	w9, [sp, #12]
	.loc	1 3711 6
	b.hi	.LBB4_13
.Ltmp344:
	.loc	1 3712 3
	adrp	x1, .L.str.4
	mov	x0, x19
.Ltmp345:
	add	x1, x1, :lo12:.L.str.4
	bl	_dev_err
.Ltmp346:
	.loc	1 0 3 is_stmt 0
	mov	w22, #-22
	b	.LBB4_7
.Ltmp347:
.LBB4_13:
	.loc	1 3716 2 is_stmt 1
	cmp	w8, #4
.Ltmp348:
	b.lt	.LBB4_38
.Ltmp349:
	.loc	1 0 2 is_stmt 0
	adrp	x24, .L.str.8
	adrp	x26, .L.str.10
	adrp	x27, .L.str.12
	mov	x22, x0
.Ltmp350:
	mov	w23, wzr
	mov	w25, wzr
	add	x24, x24, :lo12:.L.str.8
	add	x26, x26, :lo12:.L.str.10
	add	x27, x27, :lo12:.L.str.12
	b	.LBB4_16
.Ltmp351:
.LBB4_15:
	.loc	1 3716 18
	ldr	w8, [sp, #12]
	add	w23, w23, #1
.Ltmp352:
	.loc	1 0 18
	mov	w25, #1
.Ltmp353:
	.loc	1 3716 2
	cmp	w23, w8
	b.ge	.LBB4_31
.Ltmp354:
.LBB4_16:
	add	x22, x22, #4
.Ltmp355:
.LBB4_17:
	.file	189 "/home/lyx/rk-android14/kernel-6.1" "./include/uapi/linux/swab.h"
	.loc	189 189 9 is_stmt 1
	ldur	w8, [x22, #-4]
	rev	w0, w8
.Ltmp356:
	.loc	1 3718 15
	bl	of_find_node_by_phandle
.Ltmp357:
	.loc	1 3719 7
	cbz	x0, .LBB4_27
.Ltmp358:
	.loc	1 3724 17
	bl	of_find_i2c_device_by_node
.Ltmp359:
	.loc	1 3726 7
	cbz	x0, .LBB4_28
.Ltmp360:
	.loc	151 773 14
	ldr	x8, [x0, #152]
.Ltmp361:
	.loc	1 3731 13
	str	x8, [x21, #16]
	.loc	1 3732 7
	cbnz	x8, .LBB4_29
.Ltmp362:
	.loc	1 3739 48
	add	x28, x0, #32
	.loc	1 3739 15 is_stmt 0
	mov	x1, x24
	mov	x0, x28
.Ltmp363:
	bl	devm_regulator_get
.Ltmp364:
	.loc	1 3740 7 is_stmt 1
	cmn	x0, #4095
	.loc	1 3739 13
	str	x0, [x21, #24]
	.loc	1 3740 7
	b.hs	.LBB4_25
.Ltmp365:
	.loc	1 3745 9
	add	x2, sp, #16
	mov	x0, x28
	mov	x1, x26
	bl	device_property_read_string
.Ltmp366:
	.loc	1 3746 7
	cbnz	w0, .LBB4_26
.Ltmp367:
	.loc	1 3749 44
	ldr	x0, [sp, #16]
.Ltmp368:
	.loc	1 3749 14 is_stmt 0
	bl	thermal_zone_get_zone_by_name
.Ltmp369:
	.loc	1 3750 8 is_stmt 1
	cmn	x0, #4095
	.loc	1 3749 12
	str	x0, [x21, #32]
	.loc	1 3750 8
	b.lo	.LBB4_15
.Ltmp370:
	.loc	1 3751 5
	mov	x0, x19
	mov	x1, x27
	bl	_dev_err
.Ltmp371:
.LBB4_24:
	.loc	1 3716 18
	ldr	w8, [sp, #12]
.Ltmp372:
	.loc	1 3716 25 is_stmt 0
	add	w23, w23, #1
.Ltmp373:
	.loc	1 3716 16
	add	x22, x22, #4
.Ltmp374:
	.loc	1 3716 2
	cmp	w23, w8
	b.lt	.LBB4_17
	b	.LBB4_30
.Ltmp375:
.LBB4_25:
	.loc	1 3741 4 is_stmt 1
	adrp	x1, .L.str.9
	mov	x0, x19
	add	x1, x1, :lo12:.L.str.9
	bl	_dev_warn
.Ltmp376:
	.loc	1 0 4 is_stmt 0
	b	.LBB4_24
.Ltmp377:
.LBB4_26:
	.loc	1 3747 4 is_stmt 1
	adrp	x1, .L.str.11
	mov	x0, x19
.Ltmp378:
	add	x1, x1, :lo12:.L.str.11
	bl	_dev_warn
.Ltmp379:
	.loc	1 0 4 is_stmt 0
	b	.LBB4_24
.Ltmp380:
.LBB4_27:
	.loc	1 3720 4 is_stmt 1
	adrp	x1, .L.str.5
	add	x1, x1, :lo12:.L.str.5
	b	.LBB4_10
.Ltmp381:
.LBB4_28:
	.loc	1 3727 4
	adrp	x1, .L.str.6
	add	x1, x1, :lo12:.L.str.6
	b	.LBB4_10
.Ltmp382:
.LBB4_29:
	.loc	1 3734 4
	adrp	x1, .L.str.7
	mov	x0, x19
.Ltmp383:
	add	x1, x1, :lo12:.L.str.7
	mov	w2, w23
	bl	_dev_info
.Ltmp384:
	.loc	1 0 4 is_stmt 0
	b	.LBB4_31
.Ltmp385:
.LBB4_30:
	tbz	w25, #0, .LBB4_38
.Ltmp386:
.LBB4_31:
	.loc	1 3765 13 is_stmt 1
	mov	x23, x21
.Ltmp387:
	.loc	161 135 9
	adrp	x1, .L.str.14
	add	x1, x1, :lo12:.L.str.14
.Ltmp388:
	mov	x0, x19
.Ltmp389:
	.loc	1 3765 13
	str	x19, [x23, #40]!
.Ltmp390:
	.loc	1 3766 21
	ldp	x8, x9, [x23, #-32]
	.loc	1 3763 16
	str	x19, [x23, #272]
	.loc	1 3766 14
	stp	x8, x9, [x23, #8]
.Ltmp391:
	.loc	161 135 9
	bl	device_property_present
.Ltmp392:
	.loc	1 3769 6
	tbz	w0, #0, .LBB4_33
.Ltmp393:
	.loc	1 0 6 is_stmt 0
	mov	w8, #1
.Ltmp394:
	.loc	1 3770 28 is_stmt 1
	str	w8, [x21, #788]
.Ltmp395:
.LBB4_33:
	.loc	1 3773 8
	mov	x0, x23
	bl	ebc_panel_probe
.Ltmp396:
	.loc	1 3774 6
	cbnz	w0, .LBB4_39
.Ltmp397:
	.loc	1 3778 28
	ldp	w9, w8, [x21, #116]
	.loc	1 3784 8
	mov	x0, x21
.Ltmp398:
	.loc	1 3780 45
	mul	w10, w9, w8
	.loc	1 3778 19
	str	w8, [x21, #300]
	.loc	1 3779 18
	str	w9, [x21, #304]
	.loc	1 3781 64
	lsr	w8, w10, #2
	.loc	1 3780 30
	stp	w10, w8, [x21, #244]
	.loc	1 3784 8
	bl	ebc_buffer_manage_init
.Ltmp399:
	.loc	1 3785 6
	cbnz	w0, .LBB4_40
.Ltmp400:
	.loc	1 0 0 is_stmt 0
	add	x24, x23, #176
.Ltmp401:
	.loc	1 3791 8 is_stmt 1
	mov	x0, x24
.Ltmp402:
	bl	ebc_lut_table_init
.Ltmp403:
	.loc	1 3792 6
	cbnz	w0, .LBB4_41
.Ltmp404:
	.loc	69 640 43
	adrp	x8, nr_cpu_ids
.Ltmp405:
	.file	190 "/home/lyx/rk-android14/kernel-6.1" "./include/linux/bitmap.h"
	.loc	190 439 9
	adrp	x0, __cpu_possible_mask
.Ltmp406:
	add	x0, x0, :lo12:__cpu_possible_mask
.Ltmp407:
	.loc	69 640 43
	ldr	w1, [x8, :lo12:nr_cpu_ids]
.Ltmp408:
	.loc	190 439 9
	bl	__bitmap_weight
.Ltmp409:
	.loc	1 3797 21
	str	w0, [x21, #784]
	.loc	1 3800 8
	mov	x0, x24
	bl	ebc_task_init
.Ltmp410:
	mov	w22, w0
.Ltmp411:
	.loc	1 3801 6
	cbnz	w0, .LBB4_42
.Ltmp412:
	.loc	1 3807 2
	mov	x0, x24
	bl	ebc_other_init
.Ltmp413:
	.loc	1 3810 2
	mov	x0, x21
	mov	x1, x23
	bl	ebc_logo_init
.Ltmp414:
	.loc	1 3815 2
	mov	x0, x24
.Ltmp415:
	.loc	151 778 19
	str	x21, [x20, #136]
.Ltmp416:
	.loc	1 3815 2
	bl	ebc_sysfs_init
.Ltmp417:
	.loc	1 3817 2
	adrp	x1, .L.str.19
	adrp	x2, .L.str.20
	ldr	x0, [x21, #312]
	add	x1, x1, :lo12:.L.str.19
	add	x2, x2, :lo12:.L.str.20
	bl	_dev_info
.Ltmp418:
	.loc	1 0 2 is_stmt 0
	b	.LBB4_7
.Ltmp419:
.LBB4_38:
	.loc	1 3758 3 is_stmt 1
	adrp	x1, .L.str.13
	mov	x0, x19
	add	x1, x1, :lo12:.L.str.13
	bl	_dev_err
.Ltmp420:
	.loc	1 0 3 is_stmt 0
	b	.LBB4_5
.Ltmp421:
.LBB4_39:
	mov	w22, w0
.Ltmp422:
	.loc	1 3775 3 is_stmt 1
	adrp	x1, .L.str.15
	add	x1, x1, :lo12:.L.str.15
	mov	x0, x19
	mov	w2, w22
	bl	_dev_err
.Ltmp423:
	.loc	1 0 3 is_stmt 0
	b	.LBB4_7
.Ltmp424:
.LBB4_40:
	.loc	1 3786 3 is_stmt 1
	adrp	x1, .L.str.16
.Ltmp425:
	.loc	1 0 0 is_stmt 0
	mov	w22, w0
.Ltmp426:
	.loc	1 3786 3
	add	x1, x1, :lo12:.L.str.16
	b	.LBB4_43
.Ltmp427:
.LBB4_41:
	.loc	1 3793 3 is_stmt 1
	adrp	x1, .L.str.17
.Ltmp428:
	.loc	1 0 0 is_stmt 0
	mov	w22, w0
.Ltmp429:
	.loc	1 3793 3
	add	x1, x1, :lo12:.L.str.17
	b	.LBB4_43
.Ltmp430:
.LBB4_42:
	.loc	1 3802 3 is_stmt 1
	adrp	x1, .L.str.18
	add	x1, x1, :lo12:.L.str.18
.Ltmp431:
.LBB4_43:
	.loc	1 0 0 is_stmt 0
	mov	x0, x19
	bl	_dev_err
.Ltmp432:
	b	.LBB4_7
.Ltmp433:
.LBB4_44:
	bl	__stack_chk_fail
.Ltmp434:
.Lfunc_end4:
	.size	ebc_probe, .Lfunc_end4-ebc_probe
	.cfi_endproc
	.file	191 "/home/lyx/rk-android14/kernel-6.1" "./include/uapi/linux/byteorder/little_endian.h"
	.file	192 "/home/lyx/rk-android14/kernel-6.1" "./include/linux/i2c.h"
	.file	193 "/home/lyx/rk-android14/kernel-6.1" "./include/uapi/linux/i2c.h"
	.file	194 "/home/lyx/rk-android14/kernel-6.1" "./include/linux/rtmutex.h"
	.file	195 "/home/lyx/rk-android14/kernel-6.1" "./include/linux/of_platform.h"
	.file	196 "/home/lyx/rk-android14/kernel-6.1" "./include/linux/regulator/consumer.h"

	.p2align	2
	.type	ebc_remove,@function
ebc_remove:
.Lfunc_begin5:
	.loc	1 3823 0 is_stmt 1
	.cfi_startproc
	str	x30, [x18], #8
	.cfi_escape 0x16, 0x12, 0x02, 0x82, 0x78
	stp	x29, x30, [sp, #-32]!
	str	x19, [sp, #16]
	mov	x29, sp
	.cfi_def_cfa w29, 32
	.cfi_offset w19, -16
	.cfi_offset w30, -24
	.cfi_offset w29, -32
.Ltmp435:
	.loc	151 773 14 prologue_end
	ldr	x19, [x0, #136]
.Ltmp436:
	.loc	1 3829 7
	ldr	x0, [x19, #800]
.Ltmp437:
	.loc	1 3829 7 is_stmt 0
	cbz	x0, .LBB5_2
.Ltmp438:
	.loc	1 3830 4 is_stmt 1
	bl	dma_buf_put
.Ltmp439:
	.loc	1 3831 25
	str	xzr, [x19, #800]
.Ltmp440:
.LBB5_2:
	.loc	1 3829 7
	ldr	x0, [x19, #808]
.Ltmp441:
	.loc	1 3829 7 is_stmt 0
	cbz	x0, .LBB5_4
.Ltmp442:
	.loc	1 3830 4 is_stmt 1
	bl	dma_buf_put
.Ltmp443:
	.loc	1 3831 25
	str	xzr, [x19, #808]
.Ltmp444:
.LBB5_4:
	.loc	1 3829 7
	ldr	x0, [x19, #816]
.Ltmp445:
	.loc	1 3829 7 is_stmt 0
	cbz	x0, .LBB5_6
.Ltmp446:
	.loc	1 3830 4 is_stmt 1
	bl	dma_buf_put
.Ltmp447:
	.loc	1 3831 25
	str	xzr, [x19, #816]
.Ltmp448:
.LBB5_6:
	.loc	1 3829 7
	ldr	x0, [x19, #824]
.Ltmp449:
	.loc	1 3829 7 is_stmt 0
	cbz	x0, .LBB5_8
.Ltmp450:
	.loc	1 3830 4 is_stmt 1
	bl	dma_buf_put
.Ltmp451:
	.loc	1 3831 25
	str	xzr, [x19, #824]
.Ltmp452:
.LBB5_8:
	.loc	1 3829 7
	ldr	x0, [x19, #832]
.Ltmp453:
	.loc	1 3829 7 is_stmt 0
	cbz	x0, .LBB5_10
.Ltmp454:
	.loc	1 3830 4 is_stmt 1
	bl	dma_buf_put
.Ltmp455:
	.loc	1 3831 25
	str	xzr, [x19, #832]
.Ltmp456:
.LBB5_10:
	.loc	1 3835 2
	adrp	x0, ebc_misc
	add	x0, x0, :lo12:ebc_misc
	bl	misc_deregister
.Ltmp457:
	.loc	1 3837 2
	ldr	x19, [sp, #16]
.Ltmp458:
	mov	w0, wzr
	ldp	x29, x30, [sp], #32
	ldr	x30, [x18, #-8]!
	ret
.Ltmp459:
.Lfunc_end5:
	.size	ebc_remove, .Lfunc_end5-ebc_remove
	.cfi_endproc

	.p2align	2
	.type	frame_done_callback,@function
frame_done_callback:
.Lfunc_begin6:
	.loc	1 2110 0
	.cfi_startproc
	str	x30, [x18], #8
	.cfi_escape 0x16, 0x12, 0x02, 0x82, 0x78
	stp	x29, x30, [sp, #-32]!
	stp	x20, x19, [sp, #16]
	mov	x29, sp
	.cfi_def_cfa w29, 32
	.cfi_offset w19, -8
	.cfi_offset w20, -16
	.cfi_offset w30, -24
	.cfi_offset w29, -32
.Ltmp460:
	.loc	1 2111 31 prologue_end
	adrp	x20, global_ebc
	ldr	x19, [x20, :lo12:global_ebc]
.Ltmp461:
	.loc	1 2113 20
	ldr	w8, [x19, #464]
	.loc	1 2113 2 is_stmt 0
	cmp	w8, #3
	b.eq	.LBB6_7
.Ltmp462:
	cmp	w8, #4
	b.ne	.LBB6_10
.Ltmp463:
	.loc	1 0 2
	mov	w8, #1
.Ltmp464:
	.loc	1 2116 17 is_stmt 1
	ldr	w9, [x19, #276]
.Ltmp465:
	.loc	1 2115 24
	str	w8, [x19, #292]
.Ltmp466:
	.loc	1 2116 36
	cbnz	w9, .LBB6_9
.Ltmp467:
	.loc	1 2116 49 is_stmt 0
	ldr	w8, [x19, #280]
.Ltmp468:
	.loc	1 2116 7
	cbnz	w8, .LBB6_9
.Ltmp469:
	.loc	1 2118 24 is_stmt 1
	ldr	w8, [x19, #284]
.Ltmp470:
	.loc	1 2118 14 is_stmt 0
	cbz	w8, .LBB6_9
.Ltmp471:
	.loc	1 2122 4 is_stmt 1
	ldr	w9, [x19, #792]
	mov	x8, x19
.Ltmp472:
	.loc	1 2122 4 is_stmt 0
	cmp	w9, #1
	b.lt	.LBB6_16
.Ltmp473:
	.loc	1 2122 4
	adrp	x1, .L.str.21
	ldr	x0, [x19, #312]
	add	x1, x1, :lo12:.L.str.21
	b	.LBB6_20
.Ltmp474:
.LBB6_7:
	.loc	1 2132 17 is_stmt 1
	ldr	w8, [x19, #276]
	.loc	1 2132 36 is_stmt 0
	cbnz	w8, .LBB6_9
.Ltmp475:
	.loc	1 2132 49
	ldr	w8, [x19, #280]
.Ltmp476:
	.loc	1 2132 7
	cbz	w8, .LBB6_14
.Ltmp477:
.LBB6_9:
	.loc	1 0 0
	adrp	x8, ebc_auto_task
	ldr	x0, [x8, :lo12:ebc_auto_task]
	bl	wake_up_process
.Ltmp478:
	b	.LBB6_18
.Ltmp479:
.LBB6_10:
	.loc	1 2148 17 is_stmt 1
	ldr	w8, [x19, #288]
.Ltmp480:
	.loc	1 2148 7 is_stmt 0
	cbz	w8, .LBB6_12
.Ltmp481:
	.loc	1 2150 20 is_stmt 1
	adrp	x8, ebc_auto_task
	mov	w9, #1
	ldr	x0, [x8, :lo12:ebc_auto_task]
	.loc	1 2149 26
	str	w9, [x19, #268]
	.loc	1 2150 4
	bl	wake_up_process
.Ltmp482:
	.loc	1 0 4 is_stmt 0
	b	.LBB6_18
.Ltmp483:
.LBB6_12:
	.loc	1 2152 45 is_stmt 1
	ldr	x0, [x19, #8]
.Ltmp484:
	.loc	170 107 2
	mov	w1, wzr
	mov	w2, wzr
	.loc	170 107 8 is_stmt 0
	ldr	x8, [x0, #144]
	.loc	170 107 2
	blr	x8
.Ltmp485:
	.loc	1 2154 4 is_stmt 1
	ldr	w8, [x19, #792]
.Ltmp486:
	.loc	1 2153 26
	str	wzr, [x19, #268]
.Ltmp487:
	.loc	1 2154 4
	cmp	w8, #1
	b.lt	.LBB6_17
.Ltmp488:
	.loc	1 2154 4 is_stmt 0
	adrp	x1, .L.str.23
	ldr	x0, [x19, #312]
	add	x1, x1, :lo12:.L.str.23
	bl	_dev_info
.Ltmp489:
	.loc	1 0 4
	b	.LBB6_17
.Ltmp490:
.LBB6_14:
	.loc	1 2134 24 is_stmt 1
	ldr	w8, [x19, #284]
.Ltmp491:
	.loc	1 2134 14 is_stmt 0
	cbz	w8, .LBB6_9
.Ltmp492:
	.loc	1 2138 4 is_stmt 1
	ldr	w9, [x19, #792]
	mov	x8, x19
.Ltmp493:
	.loc	1 2138 4 is_stmt 0
	cmp	w9, #1
	b.ge	.LBB6_19
.Ltmp494:
.LBB6_16:
	.loc	1 0 0
	ldr	x0, [x8, #8]
.Ltmp495:
	mov	w1, wzr
	mov	w2, wzr
	ldr	x8, [x0, #144]
	blr	x8
.Ltmp496:
	ldr	w8, [x19, #304]
	mov	w1, wzr
	ldr	w9, [x19, #300]
	ldr	x0, [x19, #384]
	mul	w8, w9, w8
	sxtw	x2, w8
	bl	memset
.Ltmp497:
	adrp	x8, jiffies
	mov	w9, #335544320
	add	x0, x19, #712
	ldr	x8, [x8, :lo12:jiffies]
	add	x1, x8, x9
	bl	mod_timer
.Ltmp498:
	str	wzr, [x19, #268]
.Ltmp499:
.LBB6_17:
	adrp	x0, ebc_thread_wq
	mov	w1, #1
	add	x0, x0, :lo12:ebc_thread_wq
	bl	__wake_up_sync
.Ltmp500:
.LBB6_18:
	.loc	1 2159 1 is_stmt 1
	ldp	x20, x19, [sp, #16]
.Ltmp501:
	ldp	x29, x30, [sp], #32
	ldr	x30, [x18, #-8]!
	ret
.LBB6_19:
.Ltmp502:
	.loc	1 2138 4
	ldr	x0, [x19, #312]
	adrp	x1, .L.str.22
	add	x1, x1, :lo12:.L.str.22
.Ltmp503:
.LBB6_20:
	.loc	1 0 0 is_stmt 0
	bl	_dev_info
.Ltmp504:
	ldr	x8, [x20, :lo12:global_ebc]
	b	.LBB6_16
.Ltmp505:
.Lfunc_end6:
	.size	frame_done_callback, .Lfunc_end6-frame_done_callback
	.cfi_endproc

	.p2align	2
	.type	ebc_panel_probe,@function
ebc_panel_probe:
.Lfunc_begin7:
	.loc	1 2758 0 is_stmt 1
	.cfi_startproc
	str	x30, [x18], #8
	.cfi_escape 0x16, 0x12, 0x02, 0x82, 0x78
	stp	x29, x30, [sp, #-48]!
	str	x21, [sp, #16]
	mov	x29, sp
	stp	x20, x19, [sp, #32]
	.cfi_def_cfa w29, 48
	.cfi_offset w19, -8
	.cfi_offset w20, -16
	.cfi_offset w21, -32
	.cfi_offset w30, -40
	.cfi_offset w29, -48
.Ltmp506:
	.loc	1 2759 30 prologue_end
	mov	x2, x0
.Ltmp507:
	.loc	159 1271 12
	adrp	x1, .L.str.24
	mov	x19, x0
.Ltmp508:
	add	x1, x1, :lo12:.L.str.24
.Ltmp509:
	mov	w3, #1
	mov	x4, xzr
.Ltmp510:
	.loc	1 2759 30
	ldr	x20, [x2], #76
.Ltmp511:
	.loc	1 2761 32
	ldr	x0, [x20, #656]
.Ltmp512:
	.loc	159 1271 12
	bl	of_property_read_variable_u32_array
.Ltmp513:
	.loc	1 2761 6
	tbnz	w0, #31, .LBB7_33
.Ltmp514:
	.loc	1 0 0 is_stmt 0
	add	x21, x20, #656
.Ltmp515:
	.loc	159 1271 12 is_stmt 1
	adrp	x1, .L.str.25
.Ltmp516:
	.loc	1 2764 65
	add	x2, x19, #80
.Ltmp517:
	.loc	159 1271 12
	add	x1, x1, :lo12:.L.str.25
.Ltmp518:
	mov	w3, #1
	mov	x4, xzr
.Ltmp519:
	.loc	1 2764 32
	ldr	x0, [x21]
.Ltmp520:
	.loc	159 1271 12
	bl	of_property_read_variable_u32_array
.Ltmp521:
	.loc	1 2764 6
	tbnz	w0, #31, .LBB7_33
.Ltmp522:
	.loc	159 1271 12
	adrp	x1, .L.str.26
.Ltmp523:
	.loc	1 2767 32
	ldr	x0, [x21]
	.loc	1 2767 68 is_stmt 0
	add	x2, x19, #84
.Ltmp524:
	.loc	159 1271 12 is_stmt 1
	add	x1, x1, :lo12:.L.str.26
.Ltmp525:
	mov	w3, #1
	mov	x4, xzr
	bl	of_property_read_variable_u32_array
.Ltmp526:
	.loc	1 2767 6
	tbnz	w0, #31, .LBB7_33
.Ltmp527:
	.loc	159 1271 12
	adrp	x1, .L.str.27
.Ltmp528:
	.loc	1 2770 32
	ldr	x0, [x21]
	.loc	1 2770 69 is_stmt 0
	add	x2, x19, #88
.Ltmp529:
	.loc	159 1271 12 is_stmt 1
	add	x1, x1, :lo12:.L.str.27
.Ltmp530:
	mov	w3, #1
	mov	x4, xzr
	bl	of_property_read_variable_u32_array
.Ltmp531:
	.loc	1 2770 6
	tbnz	w0, #31, .LBB7_33
.Ltmp532:
	.loc	159 1271 12
	adrp	x1, .L.str.28
.Ltmp533:
	.loc	1 2773 32
	ldr	x0, [x21]
	.loc	1 2773 63 is_stmt 0
	add	x2, x19, #104
.Ltmp534:
	.loc	159 1271 12 is_stmt 1
	add	x1, x1, :lo12:.L.str.28
.Ltmp535:
	mov	w3, #1
	mov	x4, xzr
	bl	of_property_read_variable_u32_array
.Ltmp536:
	.loc	1 2773 6
	tbnz	w0, #31, .LBB7_33
.Ltmp537:
	.loc	159 1271 12
	adrp	x1, .L.str.29
.Ltmp538:
	.loc	1 2776 32
	ldr	x0, [x21]
	.loc	1 2776 62 is_stmt 0
	add	x2, x19, #108
.Ltmp539:
	.loc	159 1271 12 is_stmt 1
	add	x1, x1, :lo12:.L.str.29
.Ltmp540:
	mov	w3, #1
	mov	x4, xzr
	bl	of_property_read_variable_u32_array
.Ltmp541:
	.loc	1 2776 6
	tbnz	w0, #31, .LBB7_33
.Ltmp542:
	.loc	159 1271 12
	adrp	x1, .L.str.30
.Ltmp543:
	.loc	1 2779 32
	ldr	x0, [x21]
	.loc	1 2779 62 is_stmt 0
	add	x2, x19, #112
.Ltmp544:
	.loc	159 1271 12 is_stmt 1
	add	x1, x1, :lo12:.L.str.30
.Ltmp545:
	mov	w3, #1
	mov	x4, xzr
	bl	of_property_read_variable_u32_array
.Ltmp546:
	.loc	1 2779 6
	tbnz	w0, #31, .LBB7_33
.Ltmp547:
	.loc	159 1271 12
	adrp	x1, .L.str.31
.Ltmp548:
	.loc	1 2782 32
	ldr	x0, [x21]
	.loc	1 2782 62 is_stmt 0
	add	x2, x19, #116
.Ltmp549:
	.loc	159 1271 12 is_stmt 1
	add	x1, x1, :lo12:.L.str.31
.Ltmp550:
	mov	w3, #1
	mov	x4, xzr
	bl	of_property_read_variable_u32_array
.Ltmp551:
	.loc	1 2782 6
	tbnz	w0, #31, .LBB7_33
.Ltmp552:
	.loc	159 1271 12
	adrp	x1, .L.str.32
.Ltmp553:
	.loc	1 2785 32
	ldr	x0, [x21]
	.loc	1 2785 62 is_stmt 0
	add	x2, x19, #120
.Ltmp554:
	.loc	159 1271 12 is_stmt 1
	add	x1, x1, :lo12:.L.str.32
.Ltmp555:
	mov	w3, #1
	mov	x4, xzr
	bl	of_property_read_variable_u32_array
.Ltmp556:
	.loc	1 2785 6
	tbnz	w0, #31, .LBB7_33
.Ltmp557:
	.loc	159 1271 12
	adrp	x1, .L.str.33
.Ltmp558:
	.loc	1 2788 32
	ldr	x0, [x21]
	.loc	1 2788 67 is_stmt 0
	add	x2, x19, #124
.Ltmp559:
	.loc	159 1271 12 is_stmt 1
	add	x1, x1, :lo12:.L.str.33
.Ltmp560:
	mov	w3, #1
	mov	x4, xzr
	bl	of_property_read_variable_u32_array
.Ltmp561:
	.loc	1 2788 6
	tbnz	w0, #31, .LBB7_33
.Ltmp562:
	.loc	159 1271 12
	adrp	x1, .L.str.34
.Ltmp563:
	.loc	1 2791 32
	ldr	x0, [x21]
	.loc	1 2791 64 is_stmt 0
	add	x2, x19, #128
.Ltmp564:
	.loc	159 1271 12 is_stmt 1
	add	x1, x1, :lo12:.L.str.34
.Ltmp565:
	mov	w3, #1
	mov	x4, xzr
	bl	of_property_read_variable_u32_array
.Ltmp566:
	.loc	1 2791 6
	tbnz	w0, #31, .LBB7_33
.Ltmp567:
	.loc	159 1271 12
	adrp	x1, .L.str.35
.Ltmp568:
	.loc	1 2794 32
	ldr	x0, [x21]
	.loc	1 2794 62 is_stmt 0
	add	x2, x19, #132
.Ltmp569:
	.loc	159 1271 12 is_stmt 1
	add	x1, x1, :lo12:.L.str.35
.Ltmp570:
	mov	w3, #1
	mov	x4, xzr
	bl	of_property_read_variable_u32_array
.Ltmp571:
	.loc	1 2794 6
	tbnz	w0, #31, .LBB7_33
.Ltmp572:
	.loc	159 1271 12
	adrp	x1, .L.str.36
.Ltmp573:
	.loc	1 2797 32
	ldr	x0, [x21]
	.loc	1 2797 62 is_stmt 0
	add	x2, x19, #136
.Ltmp574:
	.loc	159 1271 12 is_stmt 1
	add	x1, x1, :lo12:.L.str.36
.Ltmp575:
	mov	w3, #1
	mov	x4, xzr
	bl	of_property_read_variable_u32_array
.Ltmp576:
	.loc	1 2797 6
	tbnz	w0, #31, .LBB7_33
.Ltmp577:
	.loc	159 1271 12
	adrp	x1, .L.str.37
.Ltmp578:
	.loc	1 2800 32
	ldr	x0, [x21]
	.loc	1 2800 62 is_stmt 0
	add	x2, x19, #140
.Ltmp579:
	.loc	159 1271 12 is_stmt 1
	add	x1, x1, :lo12:.L.str.37
.Ltmp580:
	mov	w3, #1
	mov	x4, xzr
	bl	of_property_read_variable_u32_array
.Ltmp581:
	.loc	1 2800 6
	tbnz	w0, #31, .LBB7_33
.Ltmp582:
	.loc	159 1271 12
	adrp	x1, .L.str.38
.Ltmp583:
	.loc	1 2803 32
	ldr	x0, [x21]
	.loc	1 2803 62 is_stmt 0
	add	x2, x19, #144
.Ltmp584:
	.loc	159 1271 12 is_stmt 1
	add	x1, x1, :lo12:.L.str.38
.Ltmp585:
	mov	w3, #1
	mov	x4, xzr
	bl	of_property_read_variable_u32_array
.Ltmp586:
	.loc	1 2803 6
	tbnz	w0, #31, .LBB7_33
.Ltmp587:
	.loc	1 2806 70
	add	x20, x19, #148
.Ltmp588:
	.loc	159 1271 12
	adrp	x1, .L.str.39
.Ltmp589:
	.loc	1 2806 32
	ldr	x0, [x21]
.Ltmp590:
	.loc	159 1271 12
	add	x1, x1, :lo12:.L.str.39
.Ltmp591:
	mov	x2, x20
	mov	w3, #1
	mov	x4, xzr
	bl	of_property_read_variable_u32_array
.Ltmp592:
	.loc	1 2806 6
	tbz	w0, #31, .LBB7_17
.Ltmp593:
	.loc	1 2807 22
	str	wzr, [x20]
.Ltmp594:
.LBB7_17:
	.loc	1 2809 70
	add	x20, x19, #152
.Ltmp595:
	.loc	159 1271 12
	adrp	x1, .L.str.40
.Ltmp596:
	.loc	1 2809 32
	ldr	x0, [x21]
.Ltmp597:
	.loc	159 1271 12
	add	x1, x1, :lo12:.L.str.40
.Ltmp598:
	mov	x2, x20
	mov	w3, #1
	mov	x4, xzr
	bl	of_property_read_variable_u32_array
.Ltmp599:
	.loc	1 2809 6
	tbz	w0, #31, .LBB7_19
.Ltmp600:
	.loc	1 2810 22
	str	wzr, [x20]
.Ltmp601:
.LBB7_19:
	.loc	1 2812 65
	add	x20, x19, #156
.Ltmp602:
	.loc	159 1271 12
	adrp	x1, .L.str.41
.Ltmp603:
	.loc	1 2812 32
	ldr	x0, [x21]
.Ltmp604:
	.loc	159 1271 12
	add	x1, x1, :lo12:.L.str.41
.Ltmp605:
	mov	x2, x20
	mov	w3, #1
	mov	x4, xzr
	bl	of_property_read_variable_u32_array
.Ltmp606:
	.loc	1 2812 6
	tbz	w0, #31, .LBB7_21
.Ltmp607:
	.loc	1 2813 17
	str	wzr, [x20]
.Ltmp608:
.LBB7_21:
	.loc	1 2815 67
	add	x20, x19, #92
.Ltmp609:
	.loc	159 1271 12
	adrp	x1, .L.str.42
.Ltmp610:
	.loc	1 2815 32
	ldr	x0, [x21]
.Ltmp611:
	.loc	159 1271 12
	add	x1, x1, :lo12:.L.str.42
.Ltmp612:
	mov	x2, x20
	mov	w3, #1
	mov	x4, xzr
	bl	of_property_read_variable_u32_array
.Ltmp613:
	.loc	1 2815 6
	tbz	w0, #31, .LBB7_23
.Ltmp614:
	.loc	1 2816 19
	str	wzr, [x20]
.Ltmp615:
.LBB7_23:
	.loc	1 2818 68
	add	x20, x19, #96
.Ltmp616:
	.loc	159 1271 12
	adrp	x1, .L.str.43
.Ltmp617:
	.loc	1 2818 32
	ldr	x0, [x21]
.Ltmp618:
	.loc	159 1271 12
	add	x1, x1, :lo12:.L.str.43
.Ltmp619:
	mov	x2, x20
	mov	w3, #1
	mov	x4, xzr
	bl	of_property_read_variable_u32_array
.Ltmp620:
	.loc	1 2818 6
	tbz	w0, #31, .LBB7_25
.Ltmp621:
	.loc	1 2819 20
	str	wzr, [x20]
.Ltmp622:
.LBB7_25:
	.loc	1 2821 71
	add	x20, x19, #160
.Ltmp623:
	.loc	159 1271 12
	adrp	x1, .L.str.44
.Ltmp624:
	.loc	1 2821 32
	ldr	x0, [x21]
.Ltmp625:
	.loc	159 1271 12
	add	x1, x1, :lo12:.L.str.44
.Ltmp626:
	mov	x2, x20
	mov	w3, #1
	mov	x4, xzr
	bl	of_property_read_variable_u32_array
.Ltmp627:
	.loc	1 2821 6
	tbz	w0, #31, .LBB7_27
.Ltmp628:
	.loc	1 2822 23
	str	wzr, [x20]
.Ltmp629:
.LBB7_27:
	.loc	1 2824 68
	add	x20, x19, #164
.Ltmp630:
	.loc	159 1271 12
	adrp	x1, .L.str.45
.Ltmp631:
	.loc	1 2824 32
	ldr	x0, [x21]
.Ltmp632:
	.loc	159 1271 12
	add	x1, x1, :lo12:.L.str.45
.Ltmp633:
	mov	x2, x20
	mov	w3, #1
	mov	x4, xzr
	bl	of_property_read_variable_u32_array
.Ltmp634:
	.loc	1 2824 6
	tbz	w0, #31, .LBB7_29
.Ltmp635:
	.loc	1 2825 20
	str	wzr, [x20]
.Ltmp636:
.LBB7_29:
	.loc	1 2827 68
	add	x20, x19, #168
.Ltmp637:
	.loc	159 1271 12
	adrp	x1, .L.str.46
.Ltmp638:
	.loc	1 2827 32
	ldr	x0, [x21]
.Ltmp639:
	.loc	159 1271 12
	add	x1, x1, :lo12:.L.str.46
.Ltmp640:
	mov	x2, x20
	mov	w3, #1
	mov	x4, xzr
	bl	of_property_read_variable_u32_array
.Ltmp641:
	.loc	1 2827 6
	tbz	w0, #31, .LBB7_31
.Ltmp642:
	.loc	1 2828 20
	str	wzr, [x20]
.Ltmp643:
.LBB7_31:
	.loc	1 2830 69
	add	x19, x19, #172
.Ltmp644:
	.loc	159 1271 12
	adrp	x1, .L.str.47
.Ltmp645:
	.loc	1 2830 32
	ldr	x0, [x21]
.Ltmp646:
	.loc	159 1271 12
	add	x1, x1, :lo12:.L.str.47
.Ltmp647:
	mov	x2, x19
	mov	w3, #1
	mov	x4, xzr
	bl	of_property_read_variable_u32_array
.Ltmp648:
	.loc	1 2830 6
	tbnz	w0, #31, .LBB7_35
.Ltmp649:
	.loc	1 0 6 is_stmt 0
	mov	w0, wzr
	b	.LBB7_34
.Ltmp650:
.LBB7_33:
	mov	w0, #-22
.Ltmp651:
.LBB7_34:
	.loc	1 2834 1 is_stmt 1
	ldp	x20, x19, [sp, #32]
	ldr	x21, [sp, #16]
	ldp	x29, x30, [sp], #48
	ldr	x30, [x18, #-8]!
	ret
.LBB7_35:
.Ltmp652:
	.loc	1 0 1 is_stmt 0
	mov	w0, wzr
.Ltmp653:
	.loc	1 2831 21 is_stmt 1
	str	wzr, [x19]
	b	.LBB7_34
.Ltmp654:
.Lfunc_end7:
	.size	ebc_panel_probe, .Lfunc_end7-ebc_panel_probe
	.cfi_endproc

	.p2align	2
	.type	ebc_buffer_manage_init,@function
ebc_buffer_manage_init:
.Lfunc_begin8:
	.loc	1 3399 0
	.cfi_startproc
	sub	sp, sp, #208
	str	x30, [x18], #8
	.cfi_escape 0x16, 0x12, 0x02, 0x82, 0x78
	stp	x29, x30, [sp, #160]
	add	x29, sp, #160
	str	x21, [sp, #176]
	stp	x20, x19, [sp, #192]
	.cfi_def_cfa w29, 48
	.cfi_offset w19, -8
	.cfi_offset w20, -16
	.cfi_offset w21, -32
	.cfi_offset w30, -40
	.cfi_offset w29, -48
	mrs	x8, SP_EL0
	ldr	x8, [x8, #1584]
	stur	x8, [x29, #-8]
.Ltmp655:
	.loc	1 3410 16 prologue_end
	ldr	w8, [x0, #244]
.Ltmp656:
	.loc	1 3404 18
	stp	xzr, xzr, [sp, #56]
	.loc	1 3400 28
	ldr	x20, [x0]
.Ltmp657:
	.loc	1 3404 18
	stp	xzr, xzr, [sp, #40]
	stp	xzr, xzr, [sp, #24]
	.loc	1 3410 6
	cmp	w8, #1280, lsl #12
	.loc	1 3404 18
	stp	xzr, xzr, [sp, #8]
.Ltmp658:
	.loc	1 3410 6
	b.gt	.LBB8_23
.Ltmp659:
	.loc	159 916 6
	adrp	x1, .L.str.49
	mov	x19, x0
.Ltmp660:
	.loc	1 3416 33
	ldr	x0, [x20, #656]
.Ltmp661:
	.loc	159 916 6
	add	x1, x1, :lo12:.L.str.49
.Ltmp662:
	add	x5, sp, #72
	mov	x2, xzr
	mov	w3, wzr
	mov	w4, wzr
.Ltmp663:
	.loc	159 914 25
	stp	xzr, xzr, [sp, #136]
	stp	xzr, xzr, [sp, #120]
	stp	xzr, xzr, [sp, #104]
	stp	xzr, xzr, [sp, #88]
	stp	xzr, xzr, [sp, #72]
.Ltmp664:
	.loc	159 916 6
	bl	__of_parse_phandle_with_args
.Ltmp665:
	.loc	159 0 6 is_stmt 0
	mov	w21, #-19
.Ltmp666:
	.loc	1 3417 6 is_stmt 1
	cbnz	w0, .LBB8_26
.Ltmp667:
	.loc	1 0 0 is_stmt 0
	ldr	x0, [sp, #72]
	.loc	1 3417 6
	cbz	x0, .LBB8_26
.Ltmp668:
	.loc	1 3420 8 is_stmt 1
	add	x2, sp, #8
	mov	w1, wzr
	bl	of_address_to_resource
.Ltmp669:
	.loc	1 3422 6
	cbnz	w0, .LBB8_24
.Ltmp670:
	.loc	1 3427 31
	ldp	x1, x8, [sp, #8]
	mov	w9, #58720255
	.loc	1 3427 27 is_stmt 0
	str	x1, [x19, #216]
.Ltmp671:
	.loc	169 227 31 is_stmt 1
	sub	x8, x8, x1
	add	x8, x8, #1
.Ltmp672:
	.loc	1 3429 6
	cmp	w8, w9
	.loc	1 3428 28
	str	w8, [x19, #240]
	.loc	1 3429 6
	b.le	.LBB8_25
.Ltmp673:
	.loc	1 3433 74
	sxtw	x2, w8
	.loc	1 3433 29 is_stmt 0
	mov	x0, x20
.Ltmp674:
	mov	w3, #1
	bl	devm_memremap
.Ltmp675:
	.loc	1 3433 27
	str	x0, [x19, #224]
	.loc	1 3435 6 is_stmt 1
	cbz	x0, .LBB8_28
.Ltmp676:
	.loc	1 0 0 is_stmt 0
	mov	x1, x0
	.loc	1 3444 31 is_stmt 1
	ldr	x0, [x19, #216]
	.loc	1 3444 83 is_stmt 0
	ldr	w2, [x19, #240]
	.loc	1 3444 8
	mov	w3, #5242880
	mov	w4, #4
	bl	ebc_buf_init
.Ltmp677:
	.loc	1 3445 6 is_stmt 1
	cbz	w0, .LBB8_8
.Ltmp678:
.LBB8_7:
	.loc	1 0 6 is_stmt 0
	mov	w21, #-12
	b	.LBB8_26
.Ltmp679:
.LBB8_8:
	.loc	1 3451 39 is_stmt 1
	ldr	x0, [x19, #216]
.Ltmp680:
	.loc	1 3451 13 is_stmt 0
	mov	w1, #5242880
.Ltmp681:
	.loc	1 3448 2 is_stmt 1
	str	xzr, [x19, #832]
	str	xzr, [x19, #824]
	str	xzr, [x19, #816]
	str	xzr, [x19, #808]
	str	xzr, [x19, #800]
.Ltmp682:
	.loc	1 3451 13
	bl	ebc_get_dma_buf
.Ltmp683:
	.loc	1 3452 7
	cmn	x0, #4095
	b.hs	.LBB8_13
.Ltmp684:
	.loc	1 3451 39
	ldr	x8, [x19, #216]
	.loc	1 3454 24
	str	x0, [x19, #800]
.Ltmp685:
	.loc	1 3451 13
	mov	w1, #5242880
	.loc	1 3451 54 is_stmt 0
	add	x8, x8, #1280, lsl #12
	.loc	1 3451 13
	mov	x0, x8
.Ltmp686:
	bl	ebc_get_dma_buf
.Ltmp687:
	.loc	1 3452 7 is_stmt 1
	cmn	x0, #1, lsl #12
	b.hi	.LBB8_13
.Ltmp688:
	.loc	1 3451 39
	ldr	x8, [x19, #216]
	.loc	1 3454 24
	str	x0, [x19, #808]
.Ltmp689:
	.loc	1 3451 13
	mov	w1, #5242880
	.loc	1 3451 54 is_stmt 0
	add	x8, x8, #2560, lsl #12
	.loc	1 3451 13
	mov	x0, x8
.Ltmp690:
	bl	ebc_get_dma_buf
.Ltmp691:
	.loc	1 3452 7 is_stmt 1
	cmn	x0, #1, lsl #12
	b.hi	.LBB8_13
.Ltmp692:
	.loc	1 3451 39
	ldr	x8, [x19, #216]
	.loc	1 3454 24
	str	x0, [x19, #816]
.Ltmp693:
	.loc	1 3451 13
	mov	w1, #5242880
	.loc	1 3451 54 is_stmt 0
	add	x8, x8, #3840, lsl #12
	.loc	1 3451 13
	mov	x0, x8
.Ltmp694:
	bl	ebc_get_dma_buf
.Ltmp695:
	.loc	1 3452 7 is_stmt 1
	cmn	x0, #1, lsl #12
	b.hi	.LBB8_13
.Ltmp696:
	.loc	1 3451 39
	ldr	x8, [x19, #216]
	mov	w9, #20971520
	.loc	1 3454 24
	str	x0, [x19, #824]
.Ltmp697:
	.loc	1 3451 13
	mov	w1, #5242880
	.loc	1 3451 54 is_stmt 0
	add	x8, x8, x9
	.loc	1 3451 13
	mov	x0, x8
.Ltmp698:
	bl	ebc_get_dma_buf
.Ltmp699:
	.loc	1 3452 7 is_stmt 1
	cmn	x0, #1, lsl #12
	b.ls	.LBB8_29
.Ltmp700:
.LBB8_13:
	.loc	1 3488 7
	ldr	x0, [x19, #800]
.Ltmp701:
	.loc	1 3488 7 is_stmt 0
	cbz	x0, .LBB8_15
.Ltmp702:
	.loc	1 3489 4 is_stmt 1
	bl	dma_buf_put
.Ltmp703:
	.loc	1 3490 25
	str	xzr, [x19, #800]
.Ltmp704:
.LBB8_15:
	.loc	1 3488 7
	ldr	x0, [x19, #808]
.Ltmp705:
	.loc	1 3488 7 is_stmt 0
	cbz	x0, .LBB8_17
.Ltmp706:
	.loc	1 3489 4 is_stmt 1
	bl	dma_buf_put
.Ltmp707:
	.loc	1 3490 25
	str	xzr, [x19, #808]
.Ltmp708:
.LBB8_17:
	.loc	1 3488 7
	ldr	x0, [x19, #816]
.Ltmp709:
	.loc	1 3488 7 is_stmt 0
	cbz	x0, .LBB8_19
.Ltmp710:
	.loc	1 3489 4 is_stmt 1
	bl	dma_buf_put
.Ltmp711:
	.loc	1 3490 25
	str	xzr, [x19, #816]
.Ltmp712:
.LBB8_19:
	.loc	1 3488 7
	ldr	x0, [x19, #824]
.Ltmp713:
	.loc	1 3488 7 is_stmt 0
	cbz	x0, .LBB8_21
.Ltmp714:
	.loc	1 3489 4 is_stmt 1
	bl	dma_buf_put
.Ltmp715:
	.loc	1 3490 25
	str	xzr, [x19, #824]
.Ltmp716:
.LBB8_21:
	.loc	1 3488 7
	ldr	x0, [x19, #832]
.Ltmp717:
	.loc	1 3488 7 is_stmt 0
	cbz	x0, .LBB8_7
.Ltmp718:
	.loc	1 3489 4 is_stmt 1
	bl	dma_buf_put
.Ltmp719:
	.loc	1 0 4 is_stmt 0
	mov	w21, #-12
	.loc	1 3490 25 is_stmt 1
	str	xzr, [x19, #832]
	b	.LBB8_26
.Ltmp720:
.LBB8_23:
	.loc	1 3411 3
	adrp	x1, .L.str.48
	mov	x0, x20
.Ltmp721:
	add	x1, x1, :lo12:.L.str.48
	bl	_dev_err
.Ltmp722:
	.loc	1 0 3 is_stmt 0
	mov	w21, #-19
	b	.LBB8_26
.Ltmp723:
.LBB8_24:
	.loc	1 3423 3 is_stmt 1
	adrp	x1, .L.str.50
.Ltmp724:
	.loc	1 0 0 is_stmt 0
	mov	w21, w0
.Ltmp725:
	.loc	1 3423 3
	add	x1, x1, :lo12:.L.str.50
	mov	x0, x20
	bl	_dev_err
.Ltmp726:
	.loc	1 0 3
	b	.LBB8_26
.Ltmp727:
.LBB8_25:
	.loc	1 3430 3 is_stmt 1
	adrp	x1, .L.str.51
	mov	x0, x20
.Ltmp728:
	add	x1, x1, :lo12:.L.str.51
	mov	w2, #58720256
	bl	_dev_err
.Ltmp729:
	.loc	1 0 3 is_stmt 0
	mov	w21, #-19
.Ltmp730:
.LBB8_26:
	mrs	x8, SP_EL0
	ldr	x8, [x8, #1584]
	ldur	x9, [x29, #-8]
	cmp	x8, x9
	b.ne	.LBB8_30
.Ltmp731:
	.loc	1 3495 1 is_stmt 1
	ldp	x20, x19, [sp, #192]
.Ltmp732:
	mov	w0, w21
	ldp	x29, x30, [sp, #160]
	ldr	x21, [sp, #176]
	ldr	x30, [x18, #-8]!
	add	sp, sp, #208
	ret
.Ltmp733:
.LBB8_28:
	.loc	1 3436 3
	adrp	x1, .L.str.52
	mov	x0, x20
	add	x1, x1, :lo12:.L.str.52
	bl	_dev_err
.Ltmp734:
	.loc	1 0 3 is_stmt 0
	b	.LBB8_7
.Ltmp735:
.LBB8_29:
	.loc	1 3457 36 is_stmt 1
	ldp	x10, x8, [x19, #216]
	mov	w9, #20971520
	mov	w11, #26214400
.Ltmp736:
	.loc	1 0 36 is_stmt 0
	mov	w14, #28311552
.Ltmp737:
	mov	w13, #2097152
.Ltmp738:
	.loc	1 3454 24 is_stmt 1
	str	x0, [x19, #832]
.Ltmp739:
	.loc	1 3480 2
	mov	w1, wzr
	.loc	1 3457 51
	add	x9, x8, x9
.Ltmp740:
	.loc	1 3461 53
	add	x12, x8, x11
	.loc	1 3463 83
	add	x11, x10, x11
	add	x10, x10, x14
.Ltmp741:
	.loc	1 3457 24
	str	x9, [x19, #232]
.Ltmp742:
	.loc	1 3461 84
	add	x9, x8, x14
	.loc	1 3462 21
	stp	x10, x13, [x19, #96]
	mov	w10, #35651584
.Ltmp743:
	.loc	1 3469 54
	add	x10, x8, x10
.Ltmp744:
	.loc	1 3461 26
	stp	x12, x11, [x19, #64]
	.loc	1 3462 21
	stp	x13, x9, [x19, #80]
	mov	w11, #40894464
	.loc	1 3464 30
	str	x9, [x19, #408]
	mov	w9, #30408704
.Ltmp745:
	.loc	1 3468 72
	add	x9, x8, x9
	mov	w13, #46137344
	.loc	1 3470 53
	add	x11, x8, x11
	.loc	1 3473 55
	add	x13, x8, x13
	.loc	1 3468 27
	stp	x9, x10, [x19, #360]
	mov	w9, #51380224
	.loc	1 3474 55
	add	x0, x8, x9
.Ltmp746:
	.loc	1 3470 26
	stp	x11, x13, [x19, #376]
	.loc	1 3480 47
	ldp	w10, w9, [x19, #116]
	mov	w11, #56623104
	mov	w13, #57671680
	.loc	1 3477 59
	add	x11, x8, x11
	.loc	1 3478 66
	add	x8, x8, x13
.Ltmp747:
	.loc	1 3464 30
	stp	x0, x12, [x19, #392]
.Ltmp748:
	.loc	1 3480 53
	mul	w2, w9, w10
	.loc	1 3477 33
	stp	x11, x8, [x19, #336]
	.loc	1 3480 2
	bl	memset
.Ltmp749:
	.loc	1 3481 50
	ldp	w8, w9, [x19, #116]
	.loc	1 3481 19 is_stmt 0
	ldr	x0, [x19, #384]
	.loc	1 3481 2
	mov	w1, wzr
	.loc	1 3481 56
	mul	w2, w9, w8
	.loc	1 3481 2
	bl	memset
.Ltmp750:
	.loc	1 3482 19 is_stmt 1
	ldr	x0, [x19, #376]
	.loc	1 3482 2 is_stmt 0
	mov	w1, #240
	.loc	1 3482 50
	ldrsw	x2, [x19, #244]
	.loc	1 3482 2
	bl	memset
.Ltmp751:
	.loc	1 0 2
	mov	w21, wzr
	b	.LBB8_26
.Ltmp752:
.LBB8_30:
	bl	__stack_chk_fail
.Ltmp753:
.Lfunc_end8:
	.size	ebc_buffer_manage_init, .Lfunc_end8-ebc_buffer_manage_init
	.cfi_endproc
	.file	197 "/home/lyx/rk-android14/kernel-6.1" "./include/linux/of_address.h"
	.file	198 "/home/lyx/rk-android14/kernel-6.1" "drivers/gpu/drm/rockchip/ebc-dev/ebc_dma_buf.h"

	.p2align	2
	.type	ebc_lut_table_init,@function
ebc_lut_table_init:
.Lfunc_begin9:
	.loc	1 3355 0 is_stmt 1
	.cfi_startproc
	sub	sp, sp, #208
	str	x30, [x18], #8
	.cfi_escape 0x16, 0x12, 0x02, 0x82, 0x78
	stp	x29, x30, [sp, #160]
	add	x29, sp, #160
	str	x21, [sp, #176]
	stp	x20, x19, [sp, #192]
	.cfi_def_cfa w29, 48
	.cfi_offset w19, -8
	.cfi_offset w20, -16
	.cfi_offset w21, -32
	.cfi_offset w30, -40
	.cfi_offset w29, -48
	mrs	x8, SP_EL0
.Ltmp754:
	.loc	159 916 6 prologue_end
	adrp	x1, .L.str.53
	ldr	x8, [x8, #1584]
	mov	x19, x0
.Ltmp755:
	add	x1, x1, :lo12:.L.str.53
.Ltmp756:
	add	x5, sp, #72
	mov	x2, xzr
	mov	w3, wzr
	stur	x8, [x29, #-8]
.Ltmp757:
	mov	w4, wzr
.Ltmp758:
	.loc	1 3357 33
	ldr	x20, [x0, #96]
.Ltmp759:
	.loc	1 3359 18
	stp	xzr, xzr, [sp, #56]
	stp	xzr, xzr, [sp, #40]
	stp	xzr, xzr, [sp, #24]
	.loc	1 3363 33
	ldr	x0, [x20, #656]
.Ltmp760:
	.loc	1 3359 18
	stp	xzr, xzr, [sp, #8]
.Ltmp761:
	.loc	159 914 25
	stp	xzr, xzr, [sp, #136]
	stp	xzr, xzr, [sp, #120]
	stp	xzr, xzr, [sp, #104]
	stp	xzr, xzr, [sp, #88]
	stp	xzr, xzr, [sp, #72]
.Ltmp762:
	.loc	159 916 6
	bl	__of_parse_phandle_with_args
.Ltmp763:
	mov	w8, w0
	mov	w0, #-19
.Ltmp764:
	.loc	1 3364 6
	cbnz	w8, .LBB9_6
.Ltmp765:
	.loc	1 0 0 is_stmt 0
	ldr	x8, [sp, #72]
	.loc	1 3364 6
	cbz	x8, .LBB9_6
.Ltmp766:
	.loc	1 3367 8 is_stmt 1
	add	x2, sp, #8
	mov	x0, x8
	mov	w1, wzr
	bl	of_address_to_resource
.Ltmp767:
	.loc	1 3369 6
	cbnz	w0, .LBB9_6
.Ltmp768:
	.loc	1 3372 21
	ldp	x1, x8, [sp, #8]
.Ltmp769:
	.loc	1 3378 26
	mov	x0, x20
.Ltmp770:
	mov	w3, #1
	.loc	1 3375 27
	str	x1, [x19, #40]
.Ltmp771:
	.loc	169 227 31
	sub	x8, x8, x1
	add	x21, x8, #1
.Ltmp772:
	.loc	1 3378 61
	sxtw	x2, w21
	.loc	1 3376 28
	str	w21, [x19, #48]
	.loc	1 3378 26
	bl	devm_memremap
.Ltmp773:
	.loc	1 3378 24 is_stmt 0
	str	x0, [x19, #208]
	.loc	1 3380 6 is_stmt 1
	cbz	x0, .LBB9_8
.Ltmp774:
	.loc	1 3385 8
	bl	epd_lut_from_mem_init
.Ltmp775:
	.loc	1 3386 6
	tbnz	w0, #31, .LBB9_9
.Ltmp776:
.LBB9_5:
	.loc	1 0 6 is_stmt 0
	mov	w0, wzr
.Ltmp777:
.LBB9_6:
	mrs	x8, SP_EL0
	ldr	x8, [x8, #1584]
	ldur	x9, [x29, #-8]
	cmp	x8, x9
	b.ne	.LBB9_11
.Ltmp778:
	.loc	1 3396 1 is_stmt 1
	ldp	x20, x19, [sp, #192]
.Ltmp779:
	ldp	x29, x30, [sp, #160]
	ldr	x21, [sp, #176]
	ldr	x30, [x18, #-8]!
	add	sp, sp, #208
	ret
.Ltmp780:
.LBB9_8:
	.loc	1 3381 3
	adrp	x1, .L.str.54
	adrp	x2, .L__func__.ebc_lut_table_init
	ldr	x0, [x19, #96]
	add	x1, x1, :lo12:.L.str.54
	add	x2, x2, :lo12:.L__func__.ebc_lut_table_init
	mov	w3, #3381
	bl	_dev_err
.Ltmp781:
	.loc	1 0 3 is_stmt 0
	mov	w0, #-12
	b	.LBB9_6
.Ltmp782:
.LBB9_9:
	.loc	1 3387 3 is_stmt 1
	adrp	x1, .L.str.55
	ldr	x0, [x19, #96]
.Ltmp783:
	add	x1, x1, :lo12:.L.str.55
	bl	_dev_err
.Ltmp784:
	.loc	1 3388 42
	ldr	x0, [x19, #96]
	.loc	1 3388 9 is_stmt 0
	mov	w2, w21
	.loc	1 3388 57
	ldr	x1, [x19, #208]
	.loc	1 3388 9
	bl	epd_lut_from_file_init
.Ltmp785:
	.loc	1 3389 7 is_stmt 1
	tbz	w0, #31, .LBB9_5
.Ltmp786:
	.loc	1 3390 4
	adrp	x1, .L.str.56
	ldr	x0, [x19, #96]
.Ltmp787:
	add	x1, x1, :lo12:.L.str.56
	bl	_dev_err
.Ltmp788:
	.loc	1 0 4 is_stmt 0
	mov	w0, #-1
	b	.LBB9_6
.Ltmp789:
.LBB9_11:
	bl	__stack_chk_fail
.Ltmp790:
.Lfunc_end9:
	.size	ebc_lut_table_init, .Lfunc_end9-ebc_lut_table_init
	.cfi_endproc

	.p2align	2
	.type	ebc_task_init,@function
ebc_task_init:
.Lfunc_begin10:
	.loc	1 3498 0 is_stmt 1
	.cfi_startproc
	sub	sp, sp, #64
	str	x30, [x18], #8
	.cfi_escape 0x16, 0x12, 0x02, 0x82, 0x78
	stp	x29, x30, [sp, #16]
	add	x29, sp, #16
	str	x21, [sp, #32]
	stp	x20, x19, [sp, #48]
	.cfi_def_cfa w29, 48
	.cfi_offset w19, -8
	.cfi_offset w20, -16
	.cfi_offset w21, -32
	.cfi_offset w30, -40
	.cfi_offset w29, -48
	mrs	x8, SP_EL0
	mov	x19, x0
.Ltmp791:
	.loc	1 3501 18 prologue_end
	adrp	x0, ebc_auto_tast_function
	adrp	x3, .L.str.57
	ldr	x8, [x8, #1584]
	mov	w9, #99
	add	x0, x0, :lo12:ebc_auto_tast_function
	add	x3, x3, :lo12:.L.str.57
	mov	x1, x19
	mov	w2, #-1
	str	x8, [sp, #8]
	.loc	1 3499 21
	str	w9, [sp]
	.loc	1 3501 18
	bl	kthread_create_on_node
.Ltmp792:
	.loc	1 3501 16 is_stmt 0
	adrp	x20, ebc_auto_task
	.loc	1 3502 6 is_stmt 1
	cmn	x0, #4095
	.loc	1 3501 16
	str	x0, [x20, :lo12:ebc_auto_task]
	.loc	1 3502 6
	b.hs	.LBB10_19
.Ltmp793:
	.loc	1 3506 2
	mov	x2, sp
	mov	w1, #1
	bl	sched_setscheduler_nocheck
.Ltmp794:
	.loc	1 3507 16
	ldr	w8, [x19, #568]
.Ltmp795:
	.loc	1 3507 6 is_stmt 0
	cmp	w8, #8
	b.lt	.LBB10_3
.Ltmp796:
	.loc	1 3508 3 is_stmt 1
	adrp	x1, cpu_bit_bitmap+56
	.loc	1 3508 24 is_stmt 0
	ldr	x0, [x20, :lo12:ebc_auto_task]
	.loc	1 3508 3
	add	x1, x1, :lo12:cpu_bit_bitmap+56
	bl	set_cpus_allowed_ptr
.Ltmp797:
.LBB10_3:
	.loc	1 3509 18 is_stmt 1
	ldr	x8, [x20, :lo12:ebc_auto_task]
.Ltmp798:
	.file	199 "/home/lyx/rk-android14/kernel-6.1" "./include/linux/sched/task.h"
	.loc	199 110 19
	add	x0, x8, #64
.Ltmp799:
	.file	200 "/home/lyx/rk-android14/kernel-6.1" "./arch/arm64/include/asm/alternative-macros.h"
	.loc	200 233 2
	//APP
.Ltmp801:
	b	.Ltmp800
.Ltmp802:
	.section	.altinstructions,"a",@progbits
.Ltmp803:
	.word	.Ltmp801-.Ltmp803
.Ltmp804:
	.word	alt_cb_patch_nops-.Ltmp804
	.hword	32794
	.byte	.Ltmp802-.Ltmp801
	.byte	.Ltmp805-.Ltmp806
	.text

.Ltmp806:
.Ltmp805:

	//NO_APP
.Ltmp807:
	.loc	200 0 2 is_stmt 0
	mov	w8, #1
.Ltmp808:
	.file	201 "/home/lyx/rk-android14/kernel-6.1" "./arch/arm64/include/asm/atomic_lse.h"
	.loc	201 62 1 is_stmt 1
	//APP
	ldadd	w8, w8, [x0]
	//NO_APP
.Ltmp809:
	.loc	45 198 6
	cbz	w8, .LBB10_28
.Ltmp810:
.LBB10_5:
	.loc	45 200 11
	add	w9, w8, #1
	orr	w8, w9, w8
.Ltmp811:
	.loc	45 200 11 is_stmt 0
	tbnz	w8, #31, .LBB10_23
.Ltmp812:
.LBB10_6:
	.loc	1 3512 25 is_stmt 1
	adrp	x0, ebc_auto_assist_tast_function
	adrp	x3, .L.str.59
	add	x0, x0, :lo12:ebc_auto_assist_tast_function
	add	x3, x3, :lo12:.L.str.59
	mov	x1, x19
	mov	w2, #-1
	bl	kthread_create_on_node
.Ltmp813:
	.loc	1 3512 23 is_stmt 0
	adrp	x21, ebc_auto_assist_task
	.loc	1 3513 6 is_stmt 1
	cmn	x0, #4095
	.loc	1 3512 23
	str	x0, [x21, :lo12:ebc_auto_assist_task]
	.loc	1 3513 6
	b.hs	.LBB10_20
.Ltmp814:
	.loc	1 3517 2
	mov	x2, sp
	mov	w1, #1
	bl	sched_setscheduler_nocheck
.Ltmp815:
	.loc	1 3518 16
	ldr	w8, [x19, #568]
.Ltmp816:
	.loc	1 3518 6 is_stmt 0
	cmp	w8, #8
	b.lt	.LBB10_9
.Ltmp817:
	.loc	1 3519 3 is_stmt 1
	adrp	x1, cpu_bit_bitmap+64
	.loc	1 3519 24 is_stmt 0
	ldr	x0, [x20, :lo12:ebc_auto_task]
	.loc	1 3519 3
	add	x1, x1, :lo12:cpu_bit_bitmap+64
	bl	set_cpus_allowed_ptr
.Ltmp818:
.LBB10_9:
	.loc	1 3520 18 is_stmt 1
	ldr	x8, [x21, :lo12:ebc_auto_assist_task]
.Ltmp819:
	.loc	199 110 19
	add	x0, x8, #64
.Ltmp820:
	.loc	200 233 2
	//APP
.Ltmp822:
	b	.Ltmp821
.Ltmp823:
	.section	.altinstructions,"a",@progbits
.Ltmp824:
	.word	.Ltmp822-.Ltmp824
.Ltmp825:
	.word	alt_cb_patch_nops-.Ltmp825
	.hword	32794
	.byte	.Ltmp823-.Ltmp822
	.byte	.Ltmp826-.Ltmp827
	.text

.Ltmp827:
.Ltmp826:

	//NO_APP
.Ltmp828:
	.loc	200 0 2 is_stmt 0
	mov	w8, #1
.Ltmp829:
	.loc	201 62 1 is_stmt 1
	//APP
	ldadd	w8, w8, [x0]
	//NO_APP
.Ltmp830:
	.loc	45 198 6
	cbz	w8, .LBB10_31
.Ltmp831:
.LBB10_11:
	.loc	45 200 11
	add	w9, w8, #1
	orr	w8, w9, w8
.Ltmp832:
	.loc	45 200 11 is_stmt 0
	tbnz	w8, #31, .LBB10_24
.Ltmp833:
.LBB10_12:
	.loc	1 3524 13 is_stmt 1
	adrp	x0, ebc_thread
	adrp	x3, .L.str.61
	mov	w8, #99
	add	x0, x0, :lo12:ebc_thread
	add	x3, x3, :lo12:.L.str.61
	mov	x1, x19
	mov	w2, #-1
.Ltmp834:
	.loc	1 3523 23
	str	w8, [sp]
.Ltmp835:
	.loc	1 3524 13
	bl	kthread_create_on_node
.Ltmp836:
	mov	x20, x0
.Ltmp837:
	cmn	x0, #4095
	b.hs	.LBB10_21
.Ltmp838:
	.loc	1 3524 13 is_stmt 0
	mov	x0, x20
	bl	wake_up_process
.Ltmp839:
	.loc	1 3524 11
	adrp	x19, ebc_task
.Ltmp840:
	.loc	1 3529 2 is_stmt 1
	mov	x2, sp
	mov	x0, x20
	mov	w1, #1
	.loc	1 3524 11
	str	x20, [x19, :lo12:ebc_task]
.Ltmp841:
	.loc	1 3529 2
	bl	sched_setscheduler_nocheck
.Ltmp842:
	.loc	1 3530 18
	ldr	x8, [x19, :lo12:ebc_task]
.Ltmp843:
	.loc	199 110 19
	add	x0, x8, #64
.Ltmp844:
	.loc	200 233 2
	//APP
.Ltmp846:
	b	.Ltmp845
.Ltmp847:
	.section	.altinstructions,"a",@progbits
.Ltmp848:
	.word	.Ltmp846-.Ltmp848
.Ltmp849:
	.word	alt_cb_patch_nops-.Ltmp849
	.hword	32794
	.byte	.Ltmp847-.Ltmp846
	.byte	.Ltmp850-.Ltmp851
	.text

.Ltmp851:
.Ltmp850:

	//NO_APP
.Ltmp852:
	.loc	200 0 2 is_stmt 0
	mov	w8, #1
.Ltmp853:
	.loc	201 62 1 is_stmt 1
	//APP
	ldadd	w8, w8, [x0]
	//NO_APP
.Ltmp854:
	.loc	45 198 6
	cbz	w8, .LBB10_34
.Ltmp855:
.LBB10_15:
	.loc	45 200 11
	add	w9, w8, #1
	orr	w8, w9, w8
.Ltmp856:
	.loc	45 200 11 is_stmt 0
	tbnz	w8, #31, .LBB10_25
.Ltmp857:
.LBB10_16:
	.loc	45 0 11
	mov	w0, wzr
.Ltmp858:
.LBB10_17:
	mrs	x8, SP_EL0
	ldr	x8, [x8, #1584]
	ldr	x9, [sp, #8]
	cmp	x8, x9
	b.ne	.LBB10_26
	.loc	1 3533 1 is_stmt 1
	ldp	x20, x19, [sp, #48]
	ldp	x29, x30, [sp, #16]
	ldr	x21, [sp, #32]
	ldr	x30, [x18, #-8]!
	add	sp, sp, #64
	ret
.LBB10_19:
.Ltmp859:
	.loc	1 3503 3
	adrp	x1, .L.str.58
	ldr	x0, [x19, #96]
	add	x1, x1, :lo12:.L.str.58
	b	.LBB10_22
.Ltmp860:
.LBB10_20:
	.loc	1 3514 3
	ldr	x0, [x19, #96]
	adrp	x1, .L.str.60
	add	x1, x1, :lo12:.L.str.60
	b	.LBB10_22
.Ltmp861:
.LBB10_21:
	.loc	1 3524 11
	adrp	x8, ebc_task
.Ltmp862:
	.loc	1 3526 3
	ldr	x0, [x19, #96]
	adrp	x1, .L.str.62
	add	x1, x1, :lo12:.L.str.62
.Ltmp863:
	.loc	1 3524 11
	str	x20, [x8, :lo12:ebc_task]
.Ltmp864:
.LBB10_22:
	.loc	1 0 0 is_stmt 0
	bl	_dev_err
.Ltmp865:
	mov	w0, #-1
	b	.LBB10_17
.Ltmp866:
.LBB10_23:
	mov	w1, #1
	b	.LBB10_29
.Ltmp867:
.LBB10_24:
	mov	w1, #1
	b	.LBB10_32
.Ltmp868:
.LBB10_25:
	mov	w1, #1
	b	.LBB10_35
.Ltmp869:
.LBB10_26:
	bl	__stack_chk_fail
.Ltmp870:
.Ltmp800:
.LBB10_27:
	.file	202 "/home/lyx/rk-android14/kernel-6.1" "./arch/arm64/include/asm/atomic_ll_sc.h"
	.loc	202 95 1 is_stmt 1
	//APP
	// atomic_fetch_add_relaxed
	prfm	pstl1strm, [x0]
.Ltmp871:
	ldxr	w8, [x0]
	add	w9, w8, #1
	stxr	w10, w9, [x0]
	cbnz	w10, .Ltmp871

	//NO_APP
.Ltmp872:
	.loc	45 198 6
	cbnz	w8, .LBB10_5
.Ltmp873:
.LBB10_28:
	.loc	45 0 6 is_stmt 0
	mov	w1, #2
.Ltmp874:
.LBB10_29:
	bl	refcount_warn_saturate
.Ltmp875:
	b	.LBB10_6
.Ltmp876:
.Ltmp821:
.LBB10_30:
	.loc	202 95 1 is_stmt 1
	//APP
	// atomic_fetch_add_relaxed
	prfm	pstl1strm, [x0]
.Ltmp877:
	ldxr	w8, [x0]
	add	w9, w8, #1
	stxr	w10, w9, [x0]
	cbnz	w10, .Ltmp877

	//NO_APP
.Ltmp878:
	.loc	45 198 6
	cbnz	w8, .LBB10_11
.Ltmp879:
.LBB10_31:
	.loc	45 0 6 is_stmt 0
	mov	w1, #2
.Ltmp880:
.LBB10_32:
	bl	refcount_warn_saturate
.Ltmp881:
	b	.LBB10_12
.Ltmp882:
.Ltmp845:
.LBB10_33:
	.loc	202 95 1 is_stmt 1
	//APP
	// atomic_fetch_add_relaxed
	prfm	pstl1strm, [x0]
.Ltmp883:
	ldxr	w8, [x0]
	add	w9, w8, #1
	stxr	w10, w9, [x0]
	cbnz	w10, .Ltmp883

	//NO_APP
.Ltmp884:
	.loc	45 198 6
	cbnz	w8, .LBB10_15
.Ltmp885:
.LBB10_34:
	.loc	45 0 6 is_stmt 0
	mov	w1, #2
.Ltmp886:
.LBB10_35:
	bl	refcount_warn_saturate
.Ltmp887:
	b	.LBB10_16
.Ltmp888:
.Lfunc_end10:
	.size	ebc_task_init, .Lfunc_end10-ebc_task_init
	.cfi_endproc
	.file	203 "/home/lyx/rk-android14/kernel-6.1" "./arch/arm64/include/asm/lse.h"
	.file	204 "/home/lyx/rk-android14/kernel-6.1" "./arch/arm64/include/asm/atomic.h"
	.file	205 "/home/lyx/rk-android14/kernel-6.1" "./include/linux/atomic/atomic-instrumented.h"
	.file	206 "/home/lyx/rk-android14/kernel-6.1" "./include/linux/kthread.h"
	.file	207 "/home/lyx/rk-android14/kernel-6.1" "./include/uapi/linux/sched/types.h"

	.p2align	2
	.type	ebc_other_init,@function
ebc_other_init:
.Lfunc_begin11:
	.loc	1 3536 0 is_stmt 1
	.cfi_startproc
	str	x30, [x18], #8
	.cfi_escape 0x16, 0x12, 0x02, 0x82, 0x78
	stp	x29, x30, [sp, #-48]!
	stp	x22, x21, [sp, #16]
	mov	x29, sp
	stp	x20, x19, [sp, #32]
	.cfi_def_cfa w29, 48
	.cfi_offset w19, -8
	.cfi_offset w20, -16
	.cfi_offset w21, -24
	.cfi_offset w22, -32
	.cfi_offset w30, -40
	.cfi_offset w29, -48
	mov	x8, #4294967297
.Ltmp889:
	.loc	1 3545 12 prologue_end
	add	x9, x0, #548
	mov	w10, #1
	mov	x19, x0
.Ltmp890:
	.loc	1 3538 29
	str	wzr, [x0, #200]
	.loc	1 3539 29
	str	xzr, [x0, #536]
	.loc	1 3541 31
	str	wzr, [x0, #92]
	.loc	1 3545 30
	str	x8, [x9]
	.loc	1 3547 12
	add	x8, x0, #556
	.loc	1 3542 24
	str	wzr, [x0, #52]
	.loc	1 3543 23
	str	wzr, [x0, #68]
	.loc	1 3544 21
	str	w10, [x0, #248]
	.loc	1 3553 28
	adds	x0, x0, #256
.Ltmp891:
	.loc	1 3547 29
	str	xzr, [x8]
	.loc	1 3549 24
	str	wzr, [x19, #576]
	.loc	1 3550 29
	str	w10, [x19, #564]
.Ltmp892:
	.loc	177 41 6
	b.eq	.LBB11_2
.Ltmp893:
	.loc	177 43 12
	adrp	x8, .L.str.87
	.loc	177 42 3
	stp	xzr, xzr, [x19, #432]
	.loc	177 43 12
	add	x8, x8, :lo12:.L.str.87
	.loc	177 42 3
	stp	xzr, xzr, [x19, #416]
	stp	xzr, xzr, [x19, #400]
	stp	xzr, xzr, [x19, #384]
	stp	xzr, xzr, [x19, #368]
	stp	xzr, xzr, [x19, #352]
	stp	xzr, xzr, [x19, #336]
	stp	xzr, xzr, [x19, #320]
	stp	xzr, xzr, [x19, #304]
	stp	xzr, xzr, [x19, #288]
	stp	xzr, xzr, [x19, #272]
	stp	x8, xzr, [x19, #256]
.Ltmp894:
.LBB11_2:
	.loc	177 45 2
	bl	wakeup_source_add
.Ltmp895:
	.loc	1 3557 2
	add	x20, x19, #456
	adrp	x1, ebc_frame_control_timeout
	add	x1, x1, :lo12:ebc_frame_control_timeout
	mov	x0, x20
	mov	w2, wzr
	mov	x3, xzr
	mov	x4, xzr
	.loc	1 3554 29
	str	wzr, [x19, #448]
	.loc	1 3557 2
	bl	init_timer_key
.Ltmp896:
	.loc	1 3558 44
	adrp	x21, jiffies
	mov	w22, #268435455
	.loc	1 3558 2 is_stmt 0
	mov	x0, x20
	.loc	1 3558 44
	ldr	x8, [x21, :lo12:jiffies]
	.loc	1 3558 52
	add	x1, x8, x22
	.loc	1 3558 2
	bl	mod_timer
.Ltmp897:
	.loc	1 3561 2 is_stmt 1
	add	x19, x19, #496
.Ltmp898:
	adrp	x1, ebc_frame_timeout
	add	x1, x1, :lo12:ebc_frame_timeout
	mov	x0, x19
	mov	w2, wzr
	mov	x3, xzr
	mov	x4, xzr
	bl	init_timer_key
.Ltmp899:
	.loc	1 3562 36
	ldr	x8, [x21, :lo12:jiffies]
	.loc	1 3562 2 is_stmt 0
	mov	x0, x19
	.loc	1 3562 44
	add	x1, x8, x22
	.loc	1 3562 2
	bl	mod_timer
.Ltmp900:
	.loc	1 3563 1 is_stmt 1
	ldp	x20, x19, [sp, #32]
	ldp	x22, x21, [sp, #16]
	ldp	x29, x30, [sp], #48
	ldr	x30, [x18, #-8]!
	ret
.Ltmp901:
.Lfunc_end11:
	.size	ebc_other_init, .Lfunc_end11-ebc_other_init
	.cfi_endproc

	.p2align	2
	.type	ebc_logo_init,@function
ebc_logo_init:
.Lfunc_begin12:
	.loc	1 3578 0
	.cfi_startproc
	sub	sp, sp, #80
	str	x30, [x18], #8
	.cfi_escape 0x16, 0x12, 0x02, 0x82, 0x78
	stp	x29, x30, [sp, #16]
	add	x29, sp, #16
	stp	x24, x23, [sp, #32]
	stp	x22, x21, [sp, #48]
	stp	x20, x19, [sp, #64]
	.cfi_def_cfa w29, 64
	.cfi_offset w19, -8
	.cfi_offset w20, -16
	.cfi_offset w21, -24
	.cfi_offset w22, -32
	.cfi_offset w23, -40
	.cfi_offset w24, -48
	.cfi_offset w30, -56
	.cfi_offset w29, -64
	mrs	x8, SP_EL0
.Ltmp902:
	.loc	1 3584 32 prologue_end
	adrp	x9, saved_command_line
	ldr	x8, [x8, #1584]
	mov	x20, x1
.Ltmp903:
	.loc	1 3584 25 is_stmt 0
	adrp	x1, .L.str.89
	mov	x19, x0
.Ltmp904:
	add	x1, x1, :lo12:.L.str.89
	str	x8, [sp, #8]
.Ltmp905:
	.loc	1 3584 32
	ldr	x22, [x9, :lo12:saved_command_line]
	.loc	1 3580 15 is_stmt 1
	str	xzr, [sp]
.Ltmp906:
	.loc	1 3584 25
	mov	x0, x22
	bl	strstr
.Ltmp907:
	.loc	1 3585 25
	adrp	x1, .L.str.90
	.loc	1 3584 25
	mov	x21, x0
.Ltmp908:
	.loc	1 3585 25
	add	x1, x1, :lo12:.L.str.90
	mov	x0, x22
	bl	strstr
.Ltmp909:
	mov	x22, x0
.Ltmp910:
	.loc	1 3590 6
	cbz	x21, .LBB12_3
.Ltmp911:
	.loc	1 3591 3
	adrp	x1, .L.str.91
	add	x2, sp, #4
	add	x1, x1, :lo12:.L.str.91
	mov	x0, x21
	bl	sscanf
.Ltmp912:
	.loc	1 3592 7
	ldr	w2, [sp, #4]
.Ltmp913:
	.loc	1 3592 31 is_stmt 0
	ldr	x8, [x19, #216]
.Ltmp914:
	.loc	1 3592 7
	cmp	x8, x2
	b.ls	.LBB12_26
.Ltmp915:
	.loc	1 0 7
	mov	x21, xzr
.Ltmp916:
.LBB12_3:
	mov	w23, #1
.Ltmp917:
	.loc	1 3604 6 is_stmt 1
	cbz	x22, .LBB12_28
.Ltmp918:
.LBB12_4:
	.loc	1 3605 3
	adrp	x1, .L.str.94
	mov	x2, sp
	add	x1, x1, :lo12:.L.str.94
	mov	x0, x22
	bl	sscanf
.Ltmp919:
	.loc	1 3606 7
	ldr	w2, [sp]
.Ltmp920:
	.loc	1 3606 31 is_stmt 0
	ldr	x8, [x19, #216]
.Ltmp921:
	.loc	1 3606 7
	cmp	x8, x2
	b.ls	.LBB12_31
.Ltmp922:
	.loc	1 0 7
	mov	x22, xzr
.Ltmp923:
	mov	w24, #1
.Ltmp924:
	.loc	1 3618 6 is_stmt 1
	cbnz	w23, .LBB12_29
.Ltmp925:
.LBB12_6:
	.loc	1 3628 9
	adrp	x0, .L.str.98
	add	x0, x0, :lo12:.L.str.98
	bl	ebc_empty_buf_get
.Ltmp926:
	.loc	1 3629 7
	cbz	x0, .LBB12_12
.Ltmp927:
	.loc	1 3630 70
	ldp	w8, w9, [x20, #76]
	.loc	1 3630 76 is_stmt 0
	mul	w8, w9, w8
.Ltmp928:
	.loc	1 3570 2 is_stmt 1
	cmp	w8, #2
	b.lo	.LBB12_10
.Ltmp929:
	.loc	1 0 0 is_stmt 0
	lsr	w8, w8, #1
	.loc	1 3630 52 is_stmt 1
	ldr	x9, [x0, #16]
	mov	x10, x21
.Ltmp930:
.LBB12_9:
	.loc	1 3571 15
	ldrb	w11, [x10], #1
.Ltmp931:
	.loc	1 3570 16
	subs	w8, w8, #1
.Ltmp932:
	.loc	1 3572 38
	lsl	w12, w11, #4
.Ltmp933:
	.loc	1 3573 30
	and	w11, w11, #0xf0
.Ltmp934:
	.loc	1 3572 17
	strb	w12, [x9]
	.loc	1 3573 17
	strb	w11, [x9, #1]
.Ltmp935:
	.loc	1 3570 2
	add	x9, x9, #2
.Ltmp936:
	b.ne	.LBB12_9
.Ltmp937:
.LBB12_10:
	.loc	1 0 2 is_stmt 0
	mov	w8, #7
	.loc	1 3632 16 is_stmt 1
	str	xzr, [x0, #48]
	mov	w9, #1
	.loc	1 3631 18
	str	w8, [x0, #40]
	.loc	1 3634 25
	ldr	w8, [x20, #76]
	.loc	1 3634 16 is_stmt 0
	str	w8, [x0, #56]
	.loc	1 3635 25 is_stmt 1
	ldr	w8, [x20, #80]
	.loc	1 3635 16 is_stmt 0
	stp	w8, w9, [x0, #60]
.Ltmp938:
.LBB12_11:
	.loc	1 0 0
	bl	ebc_add_to_dsp_buf_list
.Ltmp939:
.LBB12_12:
	.loc	1 3641 6 is_stmt 1
	tbnz	w24, #0, .LBB12_18
.Ltmp940:
	.loc	1 3642 9
	adrp	x0, .L.str.98
	add	x0, x0, :lo12:.L.str.98
	bl	ebc_empty_buf_get
.Ltmp941:
	.loc	1 3643 7
	cbz	x0, .LBB12_18
.Ltmp942:
	.loc	1 3644 70
	ldp	w8, w9, [x20, #76]
	.loc	1 3644 76 is_stmt 0
	mul	w8, w9, w8
.Ltmp943:
	.loc	1 3570 2 is_stmt 1
	cmp	w8, #2
	b.lo	.LBB12_17
.Ltmp944:
	.loc	1 0 0 is_stmt 0
	lsr	w8, w8, #1
	.loc	1 3644 52 is_stmt 1
	ldr	x9, [x0, #16]
	mov	x10, x22
.Ltmp945:
.LBB12_16:
	.loc	1 3571 15
	ldrb	w11, [x10], #1
.Ltmp946:
	.loc	1 3570 16
	subs	w8, w8, #1
.Ltmp947:
	.loc	1 3572 38
	lsl	w12, w11, #4
.Ltmp948:
	.loc	1 3573 30
	and	w11, w11, #0xf0
.Ltmp949:
	.loc	1 3572 17
	strb	w12, [x9]
	.loc	1 3573 17
	strb	w11, [x9, #1]
.Ltmp950:
	.loc	1 3570 2
	add	x9, x9, #2
.Ltmp951:
	b.ne	.LBB12_16
.Ltmp952:
.LBB12_17:
	.loc	1 0 2 is_stmt 0
	mov	w8, #7
	.loc	1 3646 16 is_stmt 1
	str	xzr, [x0, #48]
	mov	w9, #1
	.loc	1 3645 18
	str	w8, [x0, #40]
	.loc	1 3648 25
	ldr	w8, [x20, #76]
	.loc	1 3648 16 is_stmt 0
	str	w8, [x0, #56]
	.loc	1 3649 25 is_stmt 1
	ldr	w8, [x20, #80]
	.loc	1 3649 16 is_stmt 0
	stp	w8, w9, [x0, #60]
	.loc	1 3651 4 is_stmt 1
	bl	ebc_add_to_dsp_buf_list
.Ltmp953:
.LBB12_18:
	.loc	1 3655 21
	ldr	w8, [x19, #308]
.Ltmp954:
	.loc	1 3655 6 is_stmt 0
	cbnz	w8, .LBB12_20
.Ltmp955:
	.loc	1 3657 3 is_stmt 1
	adrp	x0, ebc_thread_wq
	mov	w8, #1
	add	x0, x0, :lo12:ebc_thread_wq
	mov	w1, #1
	.loc	1 3656 32
	str	w8, [x19, #308]
	.loc	1 3657 3
	bl	__wake_up_sync
.Ltmp956:
.LBB12_20:
	.loc	1 3660 6
	cbz	x21, .LBB12_22
.Ltmp957:
	.loc	1 3661 3
	mov	x0, x21
	bl	kfree
.Ltmp958:
.LBB12_22:
	.loc	1 3662 6
	cbz	x22, .LBB12_24
.Ltmp959:
	.loc	1 3663 3
	mov	x0, x22
	bl	kfree
.Ltmp960:
.LBB12_24:
	.loc	1 0 3 is_stmt 0
	mrs	x8, SP_EL0
	ldr	x8, [x8, #1584]
	ldr	x9, [sp, #8]
	cmp	x8, x9
	b.ne	.LBB12_37
.Ltmp961:
	.loc	1 3666 1 is_stmt 1
	ldp	x20, x19, [sp, #64]
.Ltmp962:
	ldp	x22, x21, [sp, #48]
	ldp	x24, x23, [sp, #32]
	ldp	x29, x30, [sp, #16]
	ldr	x30, [x18, #-8]!
	add	sp, sp, #80
	ret
.Ltmp963:
.LBB12_26:
	.loc	1 3594 4
	adrp	x1, .L.str.92
	ldr	x0, [x19, #312]
	add	x1, x1, :lo12:.L.str.92
	bl	_dev_info
.Ltmp964:
	.loc	1 3595 46
	ldp	w9, w8, [x20, #76]
.Ltmp965:
	.loc	188 558 9
	mov	w1, #3520
.Ltmp966:
	.loc	1 3595 37
	mul	w8, w8, w9
.Ltmp967:
	.loc	1 3595 53 is_stmt 0
	lsr	w0, w8, #1
.Ltmp968:
	.loc	188 558 9 is_stmt 1
	bl	__kmalloc
.Ltmp969:
	.loc	1 3596 8
	cbz	x0, .LBB12_35
.Ltmp970:
	.loc	1 3600 112
	ldp	w9, w8, [x20, #76]
	.loc	1 3600 73 is_stmt 0
	ldp	x11, x12, [x19, #216]
	.loc	1 0 0
	mov	x21, x0
.Ltmp971:
	.loc	1 3600 50
	ldr	w10, [sp, #4]
.Ltmp972:
	.loc	1 3600 103
	mul	w8, w8, w9
	.loc	1 3600 61
	sub	x9, x10, x11
	.loc	1 3600 119
	lsr	w2, w8, #1
	.loc	1 3600 47
	add	x1, x12, x9
	.loc	1 3600 4
	bl	memcpy
.Ltmp973:
	.loc	1 0 4
	mov	w23, wzr
.Ltmp974:
	.loc	1 3604 6 is_stmt 1
	cbnz	x22, .LBB12_4
.Ltmp975:
.LBB12_28:
	.loc	1 0 6 is_stmt 0
	mov	w24, #1
.Ltmp976:
	.loc	1 3618 6 is_stmt 1
	cbz	w23, .LBB12_6
.Ltmp977:
.LBB12_29:
	.loc	1 3619 3
	adrp	x1, .L.str.97
	ldr	x0, [x19, #312]
	add	x1, x1, :lo12:.L.str.97
	bl	_dev_info
.Ltmp978:
	.loc	1 3620 12
	ldr	x0, [x19, #16]
.Ltmp979:
	.loc	1 3620 7 is_stmt 0
	cbz	x0, .LBB12_33
.Ltmp980:
	.loc	1 3621 4 is_stmt 1
	bl	ebc_pmic_verity_vcom
.Ltmp981:
	.loc	1 0 4 is_stmt 0
	b	.LBB12_34
.Ltmp982:
.LBB12_31:
	.loc	1 3608 4 is_stmt 1
	adrp	x1, .L.str.95
	ldr	x0, [x19, #312]
	add	x1, x1, :lo12:.L.str.95
	bl	_dev_info
.Ltmp983:
	.loc	1 3609 46
	ldp	w9, w8, [x20, #76]
.Ltmp984:
	.loc	188 558 9
	mov	w1, #3520
.Ltmp985:
	.loc	1 3609 37
	mul	w8, w8, w9
.Ltmp986:
	.loc	1 3609 53 is_stmt 0
	lsr	w0, w8, #1
.Ltmp987:
	.loc	188 558 9 is_stmt 1
	bl	__kmalloc
.Ltmp988:
	.loc	1 3610 8
	cbz	x0, .LBB12_36
.Ltmp989:
	.loc	1 3614 112
	ldp	w9, w8, [x20, #76]
	.loc	1 3614 73 is_stmt 0
	ldp	x11, x12, [x19, #216]
	.loc	1 0 0
	mov	x22, x0
.Ltmp990:
	.loc	1 3614 50
	ldr	w10, [sp]
.Ltmp991:
	.loc	1 3614 103
	mul	w8, w8, w9
	.loc	1 3614 61
	sub	x9, x10, x11
	.loc	1 3614 119
	lsr	w2, w8, #1
	.loc	1 3614 47
	add	x1, x12, x9
	.loc	1 3614 4
	bl	memcpy
.Ltmp992:
	.loc	1 0 4
	mov	w24, wzr
.Ltmp993:
	.loc	1 3618 6 is_stmt 1
	cbz	w23, .LBB12_6
	b	.LBB12_29
.Ltmp994:
.LBB12_33:
	.loc	1 3623 35
	ldr	x0, [x19, #24]
	.loc	1 3623 4 is_stmt 0
	bl	ebc_regulator_verity_vcom
.Ltmp995:
.LBB12_34:
	.loc	1 2728 8 is_stmt 1
	adrp	x0, .L.str.99
	add	x0, x0, :lo12:.L.str.99
	bl	ebc_empty_buf_get
.Ltmp996:
	.loc	1 2729 38
	ldp	w8, w9, [x20, #76]
	.loc	1 2728 8
	mov	x23, x0
.Ltmp997:
	.loc	1 2729 14
	ldr	x0, [x0, #16]
	.loc	1 2729 2 is_stmt 0
	mov	w1, #240
	.loc	1 2729 44
	mul	w2, w9, w8
	.loc	1 2729 2
	bl	memset
.Ltmp998:
	.loc	1 0 2
	mov	w8, #17
	.loc	1 2731 14 is_stmt 1
	str	xzr, [x23, #48]
	mov	w9, #1
	.loc	1 2736 2
	mov	x0, x23
	.loc	1 2730 16
	str	w8, [x23, #40]
	.loc	1 2733 23
	ldr	w8, [x20, #76]
	.loc	1 2733 14 is_stmt 0
	str	w8, [x23, #56]
	.loc	1 2734 23 is_stmt 1
	ldr	w8, [x20, #80]
	.loc	1 2734 14 is_stmt 0
	stp	w8, w9, [x23, #60]
	b	.LBB12_11
.Ltmp999:
.LBB12_35:
	.loc	1 3597 5 is_stmt 1
	adrp	x1, .L.str.93
	ldr	x0, [x19, #312]
.Ltmp1000:
	add	x1, x1, :lo12:.L.str.93
	bl	_dev_err
.Ltmp1001:
	.loc	1 0 5 is_stmt 0
	b	.LBB12_24
.Ltmp1002:
.LBB12_36:
	.loc	1 3611 5 is_stmt 1
	adrp	x1, .L.str.96
	ldr	x0, [x19, #312]
.Ltmp1003:
	add	x1, x1, :lo12:.L.str.96
	bl	_dev_err
.Ltmp1004:
	.loc	1 0 5 is_stmt 0
	b	.LBB12_24
.Ltmp1005:
.LBB12_37:
	bl	__stack_chk_fail
.Ltmp1006:
.Lfunc_end12:
	.size	ebc_logo_init, .Lfunc_end12-ebc_logo_init
	.cfi_endproc

	.p2align	2
	.type	ebc_sysfs_init,@function
ebc_sysfs_init:
.Lfunc_begin13:
	.loc	1 3336 0 is_stmt 1
	.cfi_startproc
	str	x30, [x18], #8
	.cfi_escape 0x16, 0x12, 0x02, 0x82, 0x78
	stp	x29, x30, [sp, #-32]!
	str	x19, [sp, #16]
	mov	x29, sp
	.cfi_def_cfa w29, 32
	.cfi_offset w19, -16
	.cfi_offset w30, -24
	.cfi_offset w29, -32
	mov	x19, x0
.Ltmp1007:
	.loc	1 3337 2 prologue_end
	adrp	x0, ebc_misc
	add	x0, x0, :lo12:ebc_misc
	bl	misc_register
.Ltmp1008:
	.loc	1 3338 2
	adrp	x0, waveform_misc
	add	x0, x0, :lo12:waveform_misc
	bl	misc_register
.Ltmp1009:
	.loc	1 3340 2
	adrp	x1, dev_attr_waveform_version
	.loc	1 3340 31 is_stmt 0
	ldr	x0, [x19, #96]
	.loc	1 3340 2
	add	x1, x1, :lo12:dev_attr_waveform_version
	bl	device_create_file
.Ltmp1010:
	.loc	1 3341 2 is_stmt 1
	adrp	x1, dev_attr_pmic_name
	.loc	1 3341 31 is_stmt 0
	ldr	x0, [x19, #96]
	.loc	1 3341 2
	add	x1, x1, :lo12:dev_attr_pmic_name
	bl	device_create_file
.Ltmp1011:
	.loc	1 3342 2 is_stmt 1
	adrp	x1, dev_attr_pmic_temp
	.loc	1 3342 31 is_stmt 0
	ldr	x0, [x19, #96]
	.loc	1 3342 2
	add	x1, x1, :lo12:dev_attr_pmic_temp
	bl	device_create_file
.Ltmp1012:
	.loc	1 3343 2 is_stmt 1
	adrp	x1, dev_attr_pmic_vcom
	.loc	1 3343 31 is_stmt 0
	ldr	x0, [x19, #96]
	.loc	1 3343 2
	add	x1, x1, :lo12:dev_attr_pmic_vcom
	bl	device_create_file
.Ltmp1013:
	.loc	1 3344 2 is_stmt 1
	adrp	x1, dev_attr_ebc_version
	.loc	1 3344 31 is_stmt 0
	ldr	x0, [x19, #96]
	.loc	1 3344 2
	add	x1, x1, :lo12:dev_attr_ebc_version
	bl	device_create_file
.Ltmp1014:
	.loc	1 3345 2 is_stmt 1
	adrp	x1, dev_attr_ebc_state
	.loc	1 3345 31 is_stmt 0
	ldr	x0, [x19, #96]
	.loc	1 3345 2
	add	x1, x1, :lo12:dev_attr_ebc_state
	bl	device_create_file
.Ltmp1015:
	.loc	1 3346 2 is_stmt 1
	adrp	x1, dev_attr_ebc_buf_state
	.loc	1 3346 31 is_stmt 0
	ldr	x0, [x19, #96]
	.loc	1 3346 2
	add	x1, x1, :lo12:dev_attr_ebc_buf_state
	bl	device_create_file
.Ltmp1016:
	.loc	1 3347 2 is_stmt 1
	adrp	x1, dev_attr_auto_frame_state
	.loc	1 3347 31 is_stmt 0
	ldr	x0, [x19, #96]
	.loc	1 3347 2
	add	x1, x1, :lo12:dev_attr_auto_frame_state
	bl	device_create_file
.Ltmp1017:
	.loc	1 3348 2 is_stmt 1
	adrp	x1, dev_attr_ebc_debug_level
	.loc	1 3348 31 is_stmt 0
	ldr	x0, [x19, #96]
	.loc	1 3348 2
	add	x1, x1, :lo12:dev_attr_ebc_debug_level
	bl	device_create_file
.Ltmp1018:
	.loc	1 3349 2 is_stmt 1
	adrp	x1, dev_attr_wf_data
	.loc	1 3349 31 is_stmt 0
	ldr	x0, [x19, #96]
	.loc	1 3349 2
	add	x1, x1, :lo12:dev_attr_wf_data
	bl	device_create_file
.Ltmp1019:
	.loc	1 3351 2 is_stmt 1
	ldr	x19, [sp, #16]
.Ltmp1020:
	ldp	x29, x30, [sp], #32
	ldr	x30, [x18, #-8]!
	ret
.Ltmp1021:
.Lfunc_end13:
	.size	ebc_sysfs_init, .Lfunc_end13-ebc_sysfs_init
	.cfi_endproc

	.p2align	2
	.type	ebc_auto_tast_function,@function
ebc_auto_tast_function:
.Lfunc_begin14:
	.loc	1 1916 0
	.cfi_startproc
	sub	sp, sp, #112
	str	x30, [x18], #8
	.cfi_escape 0x16, 0x12, 0x02, 0x82, 0x78
	stp	x29, x30, [sp, #16]
	add	x29, sp, #16
	stp	x28, x27, [sp, #32]
	stp	x26, x25, [sp, #48]
	stp	x24, x23, [sp, #64]
	stp	x22, x21, [sp, #80]
	stp	x20, x19, [sp, #96]
	.cfi_def_cfa w29, 96
	.cfi_offset w19, -8
	.cfi_offset w20, -16
	.cfi_offset w21, -24
	.cfi_offset w22, -32
	.cfi_offset w23, -40
	.cfi_offset w24, -48
	.cfi_offset w25, -56
	.cfi_offset w26, -64
	.cfi_offset w27, -72
	.cfi_offset w28, -80
	.cfi_offset w30, -88
	.cfi_offset w29, -96
.Ltmp1022:
	.loc	1 1917 20 prologue_end
	adrp	x8, global_ebc
	adrp	x19, ebc_auto_thread_sem
	adrp	x22, ebc_assist_finished_flag_sem
	add	x19, x19, :lo12:ebc_auto_thread_sem
	mov	w25, #2
	mov	w21, #255
	ldr	x28, [x8, :lo12:global_ebc]
.Ltmp1023:
	.loc	1 0 20 is_stmt 0
	add	x22, x22, :lo12:ebc_assist_finished_flag_sem
	//APP
	mrs	x26, SP_EL0
	//NO_APP
	.loc	1 1919 36 is_stmt 1
	add	x20, x28, #216
.Ltmp1024:
	.loc	1 0 36 is_stmt 0
	add	x8, x28, #712
	str	x8, [sp, #8]
	b	.LBB14_3
.Ltmp1025:
.LBB14_1:
	.loc	1 2019 6 is_stmt 1
	bl	get_auto_image2
.Ltmp1026:
.LBB14_2:
	.loc	1 2102 3
	mov	x0, x19
	bl	up
.Ltmp1027:
	.loc	1 2103 3
	bl	schedule
.Ltmp1028:
.LBB14_3:
	.loc	1 1927 3
	mov	x0, x19
.Ltmp1029:
	bl	down
.Ltmp1030:
	.loc	1 1929 3
	mov	x0, x22
	bl	down
.Ltmp1031:
	.loc	1 1934 3
	str	w25, [x26, #48]
.Ltmp1032:
	.loc	1 1934 3 is_stmt 0
	//APP
	dmb	ish
	//NO_APP
.Ltmp1033:
	.loc	1 1935 21 is_stmt 1
	ldr	w8, [x28, #464]
	.loc	1 1935 3 is_stmt 0
	cmp	w8, #1
	b.eq	.LBB14_11
.Ltmp1034:
	cmp	w8, #3
	b.eq	.LBB14_14
.Ltmp1035:
	cmp	w8, #4
	b.ne	.LBB14_18
.Ltmp1036:
	.loc	1 1937 18 is_stmt 1
	ldr	w8, [x28, #292]
.Ltmp1037:
	.loc	1 1937 8 is_stmt 0
	cbz	w8, .LBB14_21
.Ltmp1038:
	.loc	1 1940 19 is_stmt 1
	ldr	w8, [x28, #276]
.Ltmp1039:
	.loc	1 1938 26
	str	wzr, [x28, #292]
	.loc	1 1939 26
	str	wzr, [x28, #284]
.Ltmp1040:
	.loc	1 1940 38
	cbnz	w8, .LBB14_9
.Ltmp1041:
	.loc	1 1940 51 is_stmt 0
	ldr	w8, [x28, #280]
.Ltmp1042:
	.loc	1 1940 9
	cbz	w8, .LBB14_30
.Ltmp1043:
.LBB14_9:
	.loc	1 1619 36 is_stmt 1
	mov	x8, x28
	.loc	1 1614 47
	ldrsw	x9, [x28, #112]
.Ltmp1044:
	.loc	1 1619 46
	mov	w10, #24
	.loc	1 1619 66 is_stmt 0
	ldrsw	x2, [x28, #248]
	.loc	1 1619 2
	mov	w3, #1
	.loc	1 1619 36
	ldr	x0, [x8, #40]!
	.loc	1 1619 46
	madd	x24, x9, x10, x8
	.loc	1 1617 42 is_stmt 1
	ldr	w10, [x28, #180]
	.loc	1 1617 16 is_stmt 0
	ldp	w8, w9, [x28, #172]
.Ltmp1045:
	.loc	1 1619 46 is_stmt 1
	ldr	x1, [x24, #32]
	.loc	1 1617 20
	add	w8, w9, w8
	.loc	1 1617 33 is_stmt 0
	add	w23, w8, w10
.Ltmp1046:
	.loc	1 1619 2 is_stmt 1
	bl	dma_sync_single_for_device
.Ltmp1047:
	.loc	1 1620 31
	ldr	x0, [x28, #48]
.Ltmp1048:
	.loc	170 77 9
	mov	w1, wzr
	mov	w2, wzr
	mov	w3, wzr
	mov	w4, wzr
	.loc	170 77 15 is_stmt 0
	ldr	x8, [x0, #88]
	.loc	170 77 9
	blr	x8
.Ltmp1049:
	.loc	1 1621 33 is_stmt 1
	ldr	x0, [x28, #48]
.Ltmp1050:
	.loc	170 82 2
	mov	w2, wzr
.Ltmp1051:
	.loc	1 1621 44
	ldr	w1, [x24, #32]
.Ltmp1052:
	.loc	170 82 8
	ldr	x8, [x0, #96]
	.loc	170 82 2 is_stmt 0
	blr	x8
.Ltmp1053:
	.loc	1 1622 38 is_stmt 1
	ldr	x0, [x28, #48]
.Ltmp1054:
	.loc	170 107 2
	mov	w1, w23
	mov	w2, wzr
	.loc	170 107 8 is_stmt 0
	ldr	x8, [x0, #144]
	.loc	170 107 2
	blr	x8
.Ltmp1055:
	.loc	1 1623 30 is_stmt 1
	ldr	x0, [x28, #48]
.Ltmp1056:
	.loc	170 97 2
	mov	w1, #1
	.loc	170 97 8 is_stmt 0
	ldr	x8, [x0, #128]
	.loc	170 97 2
	blr	x8
.Ltmp1057:
	.loc	1 1624 37 is_stmt 1
	ldr	w8, [x28, #112]
	.loc	1 1624 28 is_stmt 0
	mov	w9, #1
	sub	w8, w9, w8
.Ltmp1058:
	.loc	1 1943 22 is_stmt 1
	adrp	x9, ebc_auto_assist_task
	ldr	x0, [x9, :lo12:ebc_auto_assist_task]
.Ltmp1059:
	.loc	1 1624 24
	str	w8, [x28, #112]
.Ltmp1060:
	.loc	1 1943 6
	bl	wake_up_process
.Ltmp1061:
	.loc	1 0 0 is_stmt 0
	ldrsw	x8, [x28, #112]
	.loc	1 1954 7 is_stmt 1
	mov	x5, x20
	.loc	1 0 0 is_stmt 0
	ldp	x1, x2, [x28, #360]
	.loc	1 1954 7
	mov	w6, #2
	.loc	1 0 0
	add	x8, x28, x8, lsl #3
	.loc	1 1945 17 is_stmt 1
	ldr	w9, [x28, #204]
	.loc	1 0 0 is_stmt 0
	ldp	x3, x4, [x28, #384]
	ldr	x0, [x8, #400]
.Ltmp1062:
	.loc	1 1945 10
	cbz	w9, .LBB14_25
.Ltmp1063:
	.loc	1 1946 7 is_stmt 1
	bl	get_overlay_image2
.Ltmp1064:
	.loc	1 0 7 is_stmt 0
	b	.LBB14_2
.Ltmp1065:
.LBB14_11:
	.loc	1 1619 36 is_stmt 1
	mov	x24, x28
	.loc	1 1619 46 is_stmt 0
	mov	w10, #24
	.loc	1 1619 2
	mov	w3, #1
	.loc	1 1619 36
	ldr	x0, [x24, #40]!
.Ltmp1066:
	.loc	1 2060 24 is_stmt 1
	ldr	w8, [x24, #248]
.Ltmp1067:
	.loc	1 1614 47
	ldrsw	x9, [x24, #72]
.Ltmp1068:
	.loc	1 1617 42
	ldr	w11, [x24, #140]
.Ltmp1069:
	.loc	1 2060 24
	sub	w8, w8, #1
.Ltmp1070:
	.loc	1 1619 66
	ldrsw	x2, [x24, #208]
	.loc	1 1619 46 is_stmt 0
	madd	x27, x9, x10, x24
	.loc	1 1617 16 is_stmt 1
	ldp	w9, w10, [x24, #132]
.Ltmp1071:
	.loc	1 2060 24
	str	w8, [x24, #248]
.Ltmp1072:
	.loc	1 1619 46
	ldr	x1, [x27, #32]
	.loc	1 1617 20
	add	w8, w10, w9
	.loc	1 1617 33 is_stmt 0
	add	w23, w8, w11
.Ltmp1073:
	.loc	1 1619 2 is_stmt 1
	bl	dma_sync_single_for_device
.Ltmp1074:
	.loc	1 1620 31
	ldr	x0, [x24, #8]
.Ltmp1075:
	.loc	170 77 9
	mov	w1, wzr
	mov	w2, wzr
	mov	w3, wzr
	mov	w4, wzr
	.loc	170 77 15 is_stmt 0
	ldr	x8, [x0, #88]
	.loc	170 77 9
	blr	x8
.Ltmp1076:
	.loc	1 1621 33 is_stmt 1
	ldr	x0, [x24, #8]
.Ltmp1077:
	.loc	170 82 2
	mov	w2, wzr
.Ltmp1078:
	.loc	1 1621 44
	ldr	w1, [x27, #32]
.Ltmp1079:
	.loc	170 82 8
	ldr	x8, [x0, #96]
	.loc	170 82 2 is_stmt 0
	blr	x8
.Ltmp1080:
	.loc	1 1622 38 is_stmt 1
	ldr	x0, [x24, #8]
.Ltmp1081:
	.loc	170 107 2
	mov	w1, w23
	mov	w2, wzr
	.loc	170 107 8 is_stmt 0
	ldr	x8, [x0, #144]
	.loc	170 107 2
	blr	x8
.Ltmp1082:
	.loc	1 1623 30 is_stmt 1
	ldr	x0, [x24, #8]
.Ltmp1083:
	.loc	170 97 2
	mov	w1, #1
	.loc	170 97 8 is_stmt 0
	ldr	x8, [x0, #128]
	.loc	170 97 2
	blr	x8
.Ltmp1084:
	.loc	1 1624 37 is_stmt 1
	ldr	w8, [x24, #72]
	.loc	1 1624 28 is_stmt 0
	mov	w9, #1
	sub	w8, w9, w8
.Ltmp1085:
	.loc	1 2063 20 is_stmt 1
	adrp	x9, ebc_auto_assist_task
	ldr	x0, [x9, :lo12:ebc_auto_assist_task]
.Ltmp1086:
	.loc	1 1624 24
	str	w8, [x24, #72]
.Ltmp1087:
	.loc	1 2063 4
	bl	wake_up_process
.Ltmp1088:
	.loc	1 2065 18
	ldr	w8, [x24, #248]
.Ltmp1089:
	.loc	1 2065 8 is_stmt 0
	cbz	w8, .LBB14_2
.Ltmp1090:
	.loc	1 0 0
	ldrsw	x8, [x28, #112]
	.loc	1 2074 5 is_stmt 1
	mov	x3, x20
	.loc	1 0 0 is_stmt 0
	ldp	x11, x9, [x28, #432]
	.loc	1 2074 5
	mov	w4, #2
	.loc	1 0 0
	add	x8, x28, x8, lsl #3
	.loc	1 2067 15 is_stmt 1
	ldr	w10, [x28, #204]
	.loc	1 0 0 is_stmt 0
	ldr	x2, [x11, #16]
	ldr	x1, [x9, #16]
	ldr	x0, [x8, #400]
.Ltmp1091:
	.loc	1 2067 8
	cbz	w10, .LBB14_23
.Ltmp1092:
	.loc	1 2068 5 is_stmt 1
	bl	direct_mode_data_change_part2
.Ltmp1093:
	.loc	1 0 5 is_stmt 0
	b	.LBB14_2
.Ltmp1094:
.LBB14_14:
	.loc	1 2013 18 is_stmt 1
	ldr	w8, [x28, #276]
.Ltmp1095:
	.loc	1 2012 25
	str	wzr, [x28, #284]
.Ltmp1096:
	.loc	1 2013 37
	cbnz	w8, .LBB14_16
.Ltmp1097:
	.loc	1 2013 50 is_stmt 0
	ldr	w8, [x28, #280]
.Ltmp1098:
	.loc	1 2013 8
	cbz	w8, .LBB14_26
.Ltmp1099:
.LBB14_16:
	.loc	1 1619 36 is_stmt 1
	mov	x8, x28
	.loc	1 1614 47
	ldrsw	x9, [x28, #112]
.Ltmp1100:
	.loc	1 1619 46
	mov	w10, #24
	.loc	1 1619 66 is_stmt 0
	ldrsw	x2, [x28, #248]
	.loc	1 1619 2
	mov	w3, #1
	.loc	1 1619 36
	ldr	x0, [x8, #40]!
	.loc	1 1619 46
	madd	x24, x9, x10, x8
	.loc	1 1617 42 is_stmt 1
	ldr	w10, [x28, #180]
	.loc	1 1617 16 is_stmt 0
	ldp	w8, w9, [x28, #172]
.Ltmp1101:
	.loc	1 1619 46 is_stmt 1
	ldr	x1, [x24, #32]
	.loc	1 1617 20
	add	w8, w9, w8
	.loc	1 1617 33 is_stmt 0
	add	w23, w8, w10
.Ltmp1102:
	.loc	1 1619 2 is_stmt 1
	bl	dma_sync_single_for_device
.Ltmp1103:
	.loc	1 1620 31
	ldr	x0, [x28, #48]
.Ltmp1104:
	.loc	170 77 9
	mov	w1, wzr
	mov	w2, wzr
	mov	w3, wzr
	mov	w4, wzr
	.loc	170 77 15 is_stmt 0
	ldr	x8, [x0, #88]
	.loc	170 77 9
	blr	x8
.Ltmp1105:
	.loc	1 1621 33 is_stmt 1
	ldr	x0, [x28, #48]
.Ltmp1106:
	.loc	170 82 2
	mov	w2, wzr
.Ltmp1107:
	.loc	1 1621 44
	ldr	w1, [x24, #32]
.Ltmp1108:
	.loc	170 82 8
	ldr	x8, [x0, #96]
	.loc	170 82 2 is_stmt 0
	blr	x8
.Ltmp1109:
	.loc	1 1622 38 is_stmt 1
	ldr	x0, [x28, #48]
.Ltmp1110:
	.loc	170 107 2
	mov	w1, w23
	mov	w2, wzr
	.loc	170 107 8 is_stmt 0
	ldr	x8, [x0, #144]
	.loc	170 107 2
	blr	x8
.Ltmp1111:
	.loc	1 1623 30 is_stmt 1
	ldr	x0, [x28, #48]
.Ltmp1112:
	.loc	170 97 2
	mov	w1, #1
	.loc	170 97 8 is_stmt 0
	ldr	x8, [x0, #128]
	.loc	170 97 2
	blr	x8
.Ltmp1113:
	.loc	1 1624 37 is_stmt 1
	ldr	w8, [x28, #112]
	.loc	1 1624 28 is_stmt 0
	mov	w9, #1
	sub	w8, w9, w8
.Ltmp1114:
	.loc	1 2016 21 is_stmt 1
	adrp	x9, ebc_auto_assist_task
	ldr	x0, [x9, :lo12:ebc_auto_assist_task]
.Ltmp1115:
	.loc	1 1624 24
	str	w8, [x28, #112]
.Ltmp1116:
	.loc	1 2016 5
	bl	wake_up_process
.Ltmp1117:
	.loc	1 0 0 is_stmt 0
	ldrsw	x8, [x28, #112]
	.loc	1 2026 6 is_stmt 1
	mov	x4, x20
	.loc	1 0 0 is_stmt 0
	ldp	x1, x2, [x28, #360]
	.loc	1 2026 6
	mov	w5, #2
	.loc	1 0 0
	add	x8, x28, x8, lsl #3
	.loc	1 2018 16 is_stmt 1
	ldr	w9, [x28, #204]
	.loc	1 0 0 is_stmt 0
	ldr	x3, [x28, #384]
	ldr	x0, [x8, #400]
.Ltmp1118:
	.loc	1 2018 9
	cbnz	w9, .LBB14_1
.Ltmp1119:
	.loc	1 2026 6 is_stmt 1
	bl	get_auto_image
.Ltmp1120:
	.loc	1 0 6 is_stmt 0
	b	.LBB14_2
.Ltmp1121:
.LBB14_18:
	.loc	1 1619 36 is_stmt 1
	mov	x24, x28
	.loc	1 1619 46 is_stmt 0
	mov	w10, #24
	.loc	1 1619 2
	mov	w3, #1
	.loc	1 1619 36
	ldr	x0, [x24, #40]!
.Ltmp1122:
	.loc	1 2081 24 is_stmt 1
	ldr	w8, [x24, #248]
.Ltmp1123:
	.loc	1 1614 47
	ldrsw	x9, [x24, #72]
.Ltmp1124:
	.loc	1 1617 42
	ldr	w11, [x24, #140]
.Ltmp1125:
	.loc	1 2081 24
	sub	w8, w8, #1
.Ltmp1126:
	.loc	1 1619 66
	ldrsw	x2, [x24, #208]
	.loc	1 1619 46 is_stmt 0
	madd	x27, x9, x10, x24
	.loc	1 1617 16 is_stmt 1
	ldp	w9, w10, [x24, #132]
.Ltmp1127:
	.loc	1 2081 24
	str	w8, [x24, #248]
.Ltmp1128:
	.loc	1 1619 46
	ldr	x1, [x27, #32]
	.loc	1 1617 20
	add	w8, w10, w9
	.loc	1 1617 33 is_stmt 0
	add	w23, w8, w11
.Ltmp1129:
	.loc	1 1619 2 is_stmt 1
	bl	dma_sync_single_for_device
.Ltmp1130:
	.loc	1 1620 31
	ldr	x0, [x24, #8]
.Ltmp1131:
	.loc	170 77 9
	mov	w1, wzr
	mov	w2, wzr
	mov	w3, wzr
	mov	w4, wzr
	.loc	170 77 15 is_stmt 0
	ldr	x8, [x0, #88]
	.loc	170 77 9
	blr	x8
.Ltmp1132:
	.loc	1 1621 33 is_stmt 1
	ldr	x0, [x24, #8]
.Ltmp1133:
	.loc	170 82 2
	mov	w2, wzr
.Ltmp1134:
	.loc	1 1621 44
	ldr	w1, [x27, #32]
.Ltmp1135:
	.loc	170 82 8
	ldr	x8, [x0, #96]
	.loc	170 82 2 is_stmt 0
	blr	x8
.Ltmp1136:
	.loc	1 1622 38 is_stmt 1
	ldr	x0, [x24, #8]
.Ltmp1137:
	.loc	170 107 2
	mov	w1, w23
	mov	w2, wzr
	.loc	170 107 8 is_stmt 0
	ldr	x8, [x0, #144]
	.loc	170 107 2
	blr	x8
.Ltmp1138:
	.loc	1 1623 30 is_stmt 1
	ldr	x0, [x24, #8]
.Ltmp1139:
	.loc	170 97 2
	mov	w1, #1
	.loc	170 97 8 is_stmt 0
	ldr	x8, [x0, #128]
	.loc	170 97 2
	blr	x8
.Ltmp1140:
	.loc	1 1624 37 is_stmt 1
	ldr	w8, [x24, #72]
	.loc	1 1624 28 is_stmt 0
	mov	w9, #1
	sub	w8, w9, w8
.Ltmp1141:
	.loc	1 2084 20 is_stmt 1
	adrp	x9, ebc_auto_assist_task
	ldr	x0, [x9, :lo12:ebc_auto_assist_task]
.Ltmp1142:
	.loc	1 1624 24
	str	w8, [x24, #72]
.Ltmp1143:
	.loc	1 2084 4
	bl	wake_up_process
.Ltmp1144:
	.loc	1 2086 18
	ldr	w8, [x24, #248]
.Ltmp1145:
	.loc	1 2086 8 is_stmt 0
	cbz	w8, .LBB14_2
.Ltmp1146:
	.loc	1 0 0
	ldrsw	x8, [x28, #112]
	.loc	1 2095 5 is_stmt 1
	mov	x3, x20
	.loc	1 0 0 is_stmt 0
	ldp	x11, x9, [x28, #432]
	.loc	1 2095 5
	mov	w4, #2
	.loc	1 0 0
	add	x8, x28, x8, lsl #3
	.loc	1 2088 15 is_stmt 1
	ldr	w10, [x28, #204]
	.loc	1 0 0 is_stmt 0
	ldr	x2, [x11, #16]
	ldr	x1, [x9, #16]
	ldr	x0, [x8, #400]
.Ltmp1147:
	.loc	1 2088 8
	cbz	w10, .LBB14_24
.Ltmp1148:
	.loc	1 2089 5 is_stmt 1
	bl	direct_mode_data_change2
.Ltmp1149:
	.loc	1 0 5 is_stmt 0
	b	.LBB14_2
.Ltmp1150:
.LBB14_21:
	.loc	1 1993 5 is_stmt 1
	mov	x0, x22
	bl	up
.Ltmp1151:
	.loc	1 0 0 is_stmt 0
	ldrsw	x8, [x28, #112]
	.loc	1 2003 6 is_stmt 1
	mov	x5, x20
	.loc	1 0 0 is_stmt 0
	ldp	x1, x2, [x28, #360]
	add	x8, x28, x8, lsl #3
	.loc	1 1995 16 is_stmt 1
	ldr	w9, [x28, #204]
	.loc	1 0 0 is_stmt 0
	ldp	x3, x4, [x28, #384]
	ldr	x0, [x8, #400]
.Ltmp1152:
	.loc	1 1995 9
	cbz	w9, .LBB14_29
.Ltmp1153:
	.loc	1 1996 6 is_stmt 1
	bl	get_overlay_image_area2
.Ltmp1154:
	.loc	1 0 6 is_stmt 0
	b	.LBB14_2
.Ltmp1155:
.LBB14_23:
	.loc	1 2074 5 is_stmt 1
	bl	direct_mode_data_change_part
.Ltmp1156:
	.loc	1 0 5 is_stmt 0
	b	.LBB14_2
.Ltmp1157:
.LBB14_24:
	.loc	1 2095 5 is_stmt 1
	bl	direct_mode_data_change
.Ltmp1158:
	.loc	1 0 5 is_stmt 0
	b	.LBB14_2
.Ltmp1159:
.LBB14_25:
	.loc	1 1954 7 is_stmt 1
	bl	get_overlay_image
.Ltmp1160:
	.loc	1 0 7 is_stmt 0
	b	.LBB14_2
.Ltmp1161:
.LBB14_26:
	.loc	1 2034 5 is_stmt 1
	mov	x0, x22
	bl	up
.Ltmp1162:
	.loc	1 2036 20
	ldr	w8, [x28, #772]
.Ltmp1163:
	.loc	1 2036 9 is_stmt 0
	cbz	w8, .LBB14_34
.Ltmp1164:
.LBB14_27:
	.loc	1 0 0
	ldrsw	x8, [x28, #112]
	.loc	1 2049 6 is_stmt 1
	mov	x4, x20
	.loc	1 0 0 is_stmt 0
	ldp	x1, x2, [x28, #360]
	.loc	1 2049 6
	mov	w5, #1
	.loc	1 0 0
	add	x8, x28, x8, lsl #3
	.loc	1 2041 16 is_stmt 1
	ldr	w9, [x28, #204]
	.loc	1 0 0 is_stmt 0
	ldr	x3, [x28, #384]
	ldr	x0, [x8, #400]
.Ltmp1165:
	.loc	1 2041 9
	cbz	w9, .LBB14_42
.Ltmp1166:
	.loc	1 2042 6 is_stmt 1
	bl	get_auto_image2
.Ltmp1167:
	.loc	1 0 6 is_stmt 0
	b	.LBB14_44
.Ltmp1168:
.LBB14_29:
	.loc	1 2003 6 is_stmt 1
	bl	get_overlay_image_area
.Ltmp1169:
	.loc	1 0 6 is_stmt 0
	b	.LBB14_2
.Ltmp1170:
.LBB14_30:
	.loc	1 1963 6 is_stmt 1
	mov	x0, x22
	bl	up
.Ltmp1171:
	.loc	1 1965 21
	ldr	w8, [x28, #772]
.Ltmp1172:
	.loc	1 1965 10 is_stmt 0
	cbnz	w8, .LBB14_32
.Ltmp1173:
	.loc	1 1968 28 is_stmt 1
	ldr	x8, [x28, #440]
	.loc	1 1966 7
	mov	x5, x20
	.loc	1 1969 28
	ldp	x3, x4, [x28, #384]
	.loc	1 1966 42
	ldr	x0, [x28, #360]
	.loc	1 1967 28
	ldr	x1, [x28, #232]
	.loc	1 1968 42
	ldr	x2, [x8, #16]
	.loc	1 1966 7
	bl	refresh_new_image
.Ltmp1174:
.LBB14_32:
	.loc	1 0 0 is_stmt 0
	ldrsw	x8, [x28, #112]
	.loc	1 1981 7 is_stmt 1
	mov	x5, x20
	.loc	1 0 0 is_stmt 0
	ldp	x1, x2, [x28, #360]
	.loc	1 1981 7
	mov	w6, #1
	.loc	1 0 0
	add	x8, x28, x8, lsl #3
	.loc	1 1972 17 is_stmt 1
	ldr	w9, [x28, #204]
	.loc	1 0 0 is_stmt 0
	ldp	x3, x4, [x28, #384]
	ldr	x0, [x8, #400]
.Ltmp1175:
	.loc	1 1972 10
	cbz	w9, .LBB14_43
.Ltmp1176:
	.loc	1 1973 7 is_stmt 1
	bl	get_overlay_image2
.Ltmp1177:
	.loc	1 0 7 is_stmt 0
	b	.LBB14_44
.Ltmp1178:
.LBB14_34:
	.loc	1 581 20 is_stmt 1
	ldr	w8, [x28, #304]
	.loc	1 582 21
	ldr	w9, [x28, #300]
.Ltmp1179:
	.loc	1 581 26
	add	w10, w8, #7
	cmp	w8, #0
	csel	w13, w10, w8, lt
.Ltmp1180:
	.loc	1 583 2
	cmp	w9, #1
	b.lt	.LBB14_27
.Ltmp1181:
	.loc	1 2038 28
	ldr	x12, [x28, #440]
	mov	w10, wzr
	.loc	1 2039 28
	ldr	x11, [x28, #384]
	.loc	1 0 0 is_stmt 0
	asr	w13, w13, #3
	.loc	1 2037 46 is_stmt 1
	ldr	x14, [x28, #360]
	.loc	1 2038 42
	ldr	x12, [x12, #16]
	b	.LBB14_37
.Ltmp1182:
.LBB14_36:
	.loc	1 583 27
	add	w10, w10, #1
.Ltmp1183:
	.loc	1 583 2 is_stmt 0
	cmp	w10, w9
	b.eq	.LBB14_27
.Ltmp1184:
.LBB14_37:
	.loc	1 584 3 is_stmt 1
	cmp	w8, #8
	b.lt	.LBB14_36
.Ltmp1185:
	.loc	1 0 3 is_stmt 0
	mov	w15, w13
	b	.LBB14_40
.Ltmp1186:
.LBB14_39:
	add	x14, x14, #8
.Ltmp1187:
	.loc	1 584 17
	subs	w15, w15, #1
.Ltmp1188:
	.loc	1 584 3
	b.eq	.LBB14_36
.Ltmp1189:
.LBB14_40:
	.loc	1 586 20 is_stmt 1
	ldr	x16, [x12], #8
.Ltmp1190:
	.loc	1 587 21
	ldr	x17, [x14]
.Ltmp1191:
	.loc	1 585 23
	ldr	x0, [x11], #8
.Ltmp1192:
	.loc	1 590 8
	cmp	x16, x17
	b.eq	.LBB14_39
.Ltmp1193:
	.loc	1 595 8
	tst	x0, #0xff
	csel	x1, x21, xzr, eq
.Ltmp1194:
	.loc	1 599 8
	tst	x0, #0xff00
	orr	x2, x1, #0xff00
	csel	x1, x2, x1, eq
.Ltmp1195:
	.loc	1 603 8
	tst	x0, #0xff0000
	orr	x2, x1, #0xff0000
	csel	x1, x2, x1, eq
.Ltmp1196:
	.loc	1 607 8
	tst	x0, #0xff000000
	orr	x2, x1, #0xff000000
	csel	x1, x2, x1, eq
.Ltmp1197:
	.loc	1 611 8
	tst	x0, #0xff00000000
	orr	x2, x1, #0xff00000000
	csel	x1, x2, x1, eq
.Ltmp1198:
	.loc	1 615 8
	tst	x0, #0xff0000000000
	orr	x2, x1, #0xff0000000000
	csel	x1, x2, x1, eq
.Ltmp1199:
	.loc	1 619 8
	tst	x0, #0xff000000000000
	orr	x2, x1, #0xff000000000000
	.loc	1 623 8
	lsr	x0, x0, #56
.Ltmp1200:
	.loc	1 619 8
	csel	x1, x2, x1, eq
.Ltmp1201:
	.loc	1 623 8
	cmp	x0, #0
	orr	x2, x1, #0xff00000000000000
	csel	x0, x2, x1, eq
.Ltmp1202:
	.loc	1 626 19
	bic	x17, x17, x0
.Ltmp1203:
	.loc	1 627 36
	and	x16, x0, x16
.Ltmp1204:
	.loc	1 627 19 is_stmt 0
	orr	x16, x17, x16
.Ltmp1205:
	.loc	1 628 17 is_stmt 1
	str	x16, [x14]
	b	.LBB14_39
.Ltmp1206:
.LBB14_42:
	.loc	1 2049 6
	bl	get_auto_image
.Ltmp1207:
	.loc	1 0 6 is_stmt 0
	b	.LBB14_44
.Ltmp1208:
.LBB14_43:
	.loc	1 1981 7 is_stmt 1
	bl	get_overlay_image
.Ltmp1209:
.LBB14_44:
	.loc	1 0 0 is_stmt 0
	mov	w8, #1
	str	w8, [x28, #284]
	adrp	x8, jiffies
	ldr	x8, [x8, :lo12:jiffies]
	ldr	x0, [sp, #8]
	add	x1, x8, #1
	bl	mod_timer
.Ltmp1210:
	b	.LBB14_2
.Ltmp1211:
.Lfunc_end14:
	.size	ebc_auto_tast_function, .Lfunc_end14-ebc_auto_tast_function
	.cfi_endproc
	.file	208 "/home/lyx/rk-android14/kernel-6.1" "./include/linux/dma-mapping.h"

	.p2align	2
	.type	ebc_auto_assist_tast_function,@function
ebc_auto_assist_tast_function:
.Lfunc_begin15:
	.loc	1 1827 0 is_stmt 1
	.cfi_startproc
	str	x30, [x18], #8
	.cfi_escape 0x16, 0x12, 0x02, 0x82, 0x78
	stp	x29, x30, [sp, #-64]!
	stp	x24, x23, [sp, #16]
	mov	x29, sp
	stp	x22, x21, [sp, #32]
	stp	x20, x19, [sp, #48]
	.cfi_def_cfa w29, 64
	.cfi_offset w19, -8
	.cfi_offset w20, -16
	.cfi_offset w21, -24
	.cfi_offset w22, -32
	.cfi_offset w23, -40
	.cfi_offset w24, -48
	.cfi_offset w30, -56
	.cfi_offset w29, -64
.Ltmp1212:
	.loc	1 1828 20 prologue_end
	adrp	x8, global_ebc
	adrp	x19, ebc_auto_assist_thread_sem
	adrp	x21, ebc_assist_finished_flag_sem
	add	x19, x19, :lo12:ebc_auto_assist_thread_sem
	mov	w23, #2
	add	x21, x21, :lo12:ebc_assist_finished_flag_sem
	ldr	x22, [x8, :lo12:global_ebc]
.Ltmp1213:
	.loc	1 0 20 is_stmt 0
	//APP
	mrs	x24, SP_EL0
	//NO_APP
	.loc	1 1830 36 is_stmt 1
	add	x20, x22, #216
.Ltmp1214:
	.loc	1 0 36 is_stmt 0
	b	.LBB15_4
.Ltmp1215:
.LBB15_1:
	ldrsw	x8, [x22, #112]
	.loc	1 1866 5 is_stmt 1
	mov	x4, x20
	.loc	1 0 0 is_stmt 0
	ldp	x1, x2, [x22, #360]
	.loc	1 1866 5
	mov	w5, #3
	.loc	1 0 0
	add	x8, x22, x8, lsl #3
	.loc	1 1858 15 is_stmt 1
	ldr	w9, [x22, #204]
	.loc	1 0 0 is_stmt 0
	ldr	x3, [x22, #384]
	ldr	x0, [x8, #400]
.Ltmp1216:
	.loc	1 1858 8
	cbz	w9, .LBB15_15
.Ltmp1217:
	.loc	1 1859 5 is_stmt 1
	bl	get_auto_image2
.Ltmp1218:
.LBB15_3:
	.loc	1 1906 3
	mov	x0, x21
	bl	up
.Ltmp1219:
	.loc	1 1907 3
	mov	x0, x19
	bl	up
.Ltmp1220:
	.loc	1 1908 3
	bl	schedule
.Ltmp1221:
.LBB15_4:
	.loc	1 1833 3
	mov	x0, x19
.Ltmp1222:
	bl	down
.Ltmp1223:
	.loc	1 1837 3
	str	w23, [x24, #48]
.Ltmp1224:
	.loc	1 1837 3 is_stmt 0
	//APP
	dmb	ish
	//NO_APP
.Ltmp1225:
	.loc	1 1838 21 is_stmt 1
	ldr	w8, [x22, #464]
	.loc	1 1838 3 is_stmt 0
	cmp	w8, #1
	b.eq	.LBB15_9
.Ltmp1226:
	cmp	w8, #3
	b.eq	.LBB15_1
.Ltmp1227:
	cmp	w8, #4
	b.ne	.LBB15_12
.Ltmp1228:
	.loc	1 0 0
	ldrsw	x8, [x22, #112]
	.loc	1 1849 5 is_stmt 1
	mov	x5, x20
	.loc	1 0 0 is_stmt 0
	ldp	x1, x2, [x22, #360]
	.loc	1 1849 5
	mov	w6, #3
	.loc	1 0 0
	add	x8, x22, x8, lsl #3
	.loc	1 1840 15 is_stmt 1
	ldr	w9, [x22, #204]
	.loc	1 0 0 is_stmt 0
	ldp	x3, x4, [x22, #384]
	ldr	x0, [x8, #400]
.Ltmp1229:
	.loc	1 1840 8
	cbz	w9, .LBB15_16
.Ltmp1230:
	.loc	1 1841 5 is_stmt 1
	bl	get_overlay_image2
.Ltmp1231:
	.loc	1 0 5 is_stmt 0
	b	.LBB15_3
.Ltmp1232:
.LBB15_9:
	.loc	1 1874 18 is_stmt 1
	ldr	w8, [x22, #288]
.Ltmp1233:
	.loc	1 1874 8 is_stmt 0
	cbz	w8, .LBB15_3
.Ltmp1234:
	.loc	1 0 0
	ldrsw	x8, [x22, #112]
	.loc	1 1883 5 is_stmt 1
	mov	x3, x20
	.loc	1 0 0 is_stmt 0
	ldp	x11, x9, [x22, #432]
	.loc	1 1883 5
	mov	w4, #3
	.loc	1 0 0
	add	x8, x22, x8, lsl #3
	.loc	1 1876 15 is_stmt 1
	ldr	w10, [x22, #204]
	.loc	1 0 0 is_stmt 0
	ldr	x2, [x11, #16]
	ldr	x1, [x9, #16]
	ldr	x0, [x8, #400]
.Ltmp1235:
	.loc	1 1876 8
	cbz	w10, .LBB15_17
.Ltmp1236:
	.loc	1 1877 5 is_stmt 1
	bl	direct_mode_data_change_part2
.Ltmp1237:
	.loc	1 0 5 is_stmt 0
	b	.LBB15_3
.Ltmp1238:
.LBB15_12:
	.loc	1 1890 18 is_stmt 1
	ldr	w8, [x22, #288]
.Ltmp1239:
	.loc	1 1890 8 is_stmt 0
	cbz	w8, .LBB15_3
.Ltmp1240:
	.loc	1 0 0
	ldrsw	x8, [x22, #112]
	.loc	1 1899 5 is_stmt 1
	mov	x3, x20
	.loc	1 0 0 is_stmt 0
	ldp	x11, x9, [x22, #432]
	.loc	1 1899 5
	mov	w4, #3
	.loc	1 0 0
	add	x8, x22, x8, lsl #3
	.loc	1 1892 15 is_stmt 1
	ldr	w10, [x22, #204]
	.loc	1 0 0 is_stmt 0
	ldr	x2, [x11, #16]
	ldr	x1, [x9, #16]
	ldr	x0, [x8, #400]
.Ltmp1241:
	.loc	1 1892 8
	cbz	w10, .LBB15_18
.Ltmp1242:
	.loc	1 1893 5 is_stmt 1
	bl	direct_mode_data_change2
.Ltmp1243:
	.loc	1 0 5 is_stmt 0
	b	.LBB15_3
.Ltmp1244:
.LBB15_15:
	.loc	1 1866 5 is_stmt 1
	bl	get_auto_image
.Ltmp1245:
	.loc	1 0 5 is_stmt 0
	b	.LBB15_3
.Ltmp1246:
.LBB15_16:
	.loc	1 1849 5 is_stmt 1
	bl	get_overlay_image
.Ltmp1247:
	.loc	1 0 5 is_stmt 0
	b	.LBB15_3
.Ltmp1248:
.LBB15_17:
	.loc	1 1883 5 is_stmt 1
	bl	direct_mode_data_change_part
.Ltmp1249:
	.loc	1 0 5 is_stmt 0
	b	.LBB15_3
.Ltmp1250:
.LBB15_18:
	.loc	1 1899 5 is_stmt 1
	bl	direct_mode_data_change
.Ltmp1251:
	.loc	1 0 5 is_stmt 0
	b	.LBB15_3
.Ltmp1252:
.Lfunc_end15:
	.size	ebc_auto_assist_tast_function, .Lfunc_end15-ebc_auto_assist_tast_function
	.cfi_endproc

	.p2align	2
	.type	ebc_thread,@function
ebc_thread:
.Lfunc_begin16:
	.loc	1 2426 0 is_stmt 1
	.cfi_startproc
	sub	sp, sp, #160
	str	x30, [x18], #8
	.cfi_escape 0x16, 0x12, 0x02, 0x82, 0x78
	stp	x29, x30, [sp, #64]
	add	x29, sp, #64
	stp	x28, x27, [sp, #80]
	stp	x26, x25, [sp, #96]
	stp	x24, x23, [sp, #112]
	stp	x22, x21, [sp, #128]
	stp	x20, x19, [sp, #144]
	.cfi_def_cfa w29, 96
	.cfi_offset w19, -8
	.cfi_offset w20, -16
	.cfi_offset w21, -24
	.cfi_offset w22, -32
	.cfi_offset w23, -40
	.cfi_offset w24, -48
	.cfi_offset w25, -56
	.cfi_offset w26, -64
	.cfi_offset w27, -72
	.cfi_offset w28, -80
	.cfi_offset w30, -88
	.cfi_offset w29, -96
.Ltmp1253:
	.loc	1 2427 20 prologue_end
	adrp	x8, global_ebc
	adrp	x26, ebc_thread_wq
	mov	w19, #1
	mov	w23, #255
	mov	x21, #67553994410557440
	add	x26, x26, :lo12:ebc_thread_wq
	ldr	x20, [x8, :lo12:global_ebc]
.Ltmp1254:
	.loc	1 0 20 is_stmt 0
	mov	w28, #232
	mov	w22, #248
	add	x8, x20, #672
	.loc	1 2428 36 is_stmt 1
	add	x9, x20, #216
.Ltmp1255:
	.loc	1 0 36 is_stmt 0
	add	x24, x20, #268
	str	x8, [sp]
	add	x8, x20, #712
	stp	x8, x9, [sp, #8]
	b	.LBB16_3
.Ltmp1256:
.LBB16_1:
	.loc	1 2688 24 is_stmt 1
	str	w19, [x20, #668]
.Ltmp1257:
.LBB16_2:
	.loc	1 2690 39
	ldr	x8, [x20, #440]
	.loc	1 2690 27 is_stmt 0
	str	x8, [x20, #432]
.Ltmp1258:
.LBB16_3:
	.loc	1 2435 17 is_stmt 1
	ldr	w8, [x20, #772]
.Ltmp1259:
	.loc	1 2435 7 is_stmt 0
	cbz	w8, .LBB16_11
.Ltmp1260:
.LBB16_4:
	.loc	1 2480 17 is_stmt 1
	ldr	w8, [x20, #768]
	.loc	1 2480 41 is_stmt 0
	cbz	w8, .LBB16_7
.Ltmp1261:
	.loc	1 2480 54
	ldr	w8, [x20, #764]
	.loc	1 2480 72
	cbnz	w8, .LBB16_7
.Ltmp1262:
	.loc	1 2480 85
	ldr	w8, [x20, #772]
.Ltmp1263:
	.loc	1 2480 7
	cbz	w8, .LBB16_16
.Ltmp1264:
.LBB16_7:
	.loc	1 2481 10 is_stmt 1
	bl	ebc_dsp_buf_get
.Ltmp1265:
	.loc	1 2482 7
	cbz	x0, .LBB16_16
.Ltmp1266:
	.loc	1 0 0 is_stmt 0
	mov	x25, x0
.Ltmp1267:
	.loc	1 2483 18 is_stmt 1
	ldr	w9, [x20, #760]
	.loc	1 0 0 is_stmt 0
	ldr	w8, [x20, #464]
	.loc	1 2483 33
	cbz	w9, .LBB16_18
.Ltmp1268:
	.loc	1 2484 36 is_stmt 1
	sub	w9, w8, #1
	cmp	w9, #2
	b.hs	.LBB16_26
.Ltmp1269:
	.loc	1 2485 49
	ldr	x8, [x20, #432]
	.loc	1 2485 23 is_stmt 0
	ldr	x0, [x20, #368]
	.loc	1 2485 84
	ldrsw	x2, [x20, #244]
	.loc	1 2485 63
	ldr	x1, [x8, #16]
	.loc	1 2485 6
	bl	memcpy
.Ltmp1270:
	.loc	1 2486 49 is_stmt 1
	ldr	x8, [x20, #440]
	.loc	1 2486 23 is_stmt 0
	ldr	x0, [x20, #360]
	.loc	1 2486 84
	ldrsw	x2, [x20, #244]
	.loc	1 2486 63
	ldr	x1, [x8, #16]
	.loc	1 2486 6
	bl	memcpy
.Ltmp1271:
	.loc	1 0 6
	b	.LBB16_142
.Ltmp1272:
.LBB16_11:
	.loc	1 2436 10 is_stmt 1
	bl	ebc_osd_buf_get
.Ltmp1273:
	.loc	1 2437 7
	cbz	x0, .LBB16_4
.Ltmp1274:
	.loc	1 0 0 is_stmt 0
	mov	x25, x0
.Ltmp1275:
	.loc	1 2438 18 is_stmt 1
	ldr	w8, [x20, #752]
	.loc	1 2438 35 is_stmt 0
	cbnz	w8, .LBB16_14
.Ltmp1276:
	.loc	1 2438 48
	ldr	w8, [x20, #756]
.Ltmp1277:
	.loc	1 2438 8
	cbz	w8, .LBB16_136
.Ltmp1278:
.LBB16_14:
	.loc	1 2439 5 is_stmt 1
	ldr	w8, [x20, #792]
.Ltmp1279:
	.loc	1 2439 5 is_stmt 0
	cmp	w8, #1
	b.ge	.LBB16_196
.Ltmp1280:
.LBB16_15:
	.loc	1 0 0
	mov	x0, x25
	bl	ebc_buf_release
.Ltmp1281:
	b	.LBB16_3
.Ltmp1282:
.LBB16_16:
	.loc	1 2694 18 is_stmt 1
	ldr	w8, [x20, #308]
.Ltmp1283:
	.loc	1 2694 8 is_stmt 0
	cbz	w8, .LBB16_33
.Ltmp1284:
	.loc	1 2699 34 is_stmt 1
	str	wzr, [x20, #308]
	b	.LBB16_3
.Ltmp1285:
.LBB16_18:
	.loc	1 2483 67
	cmp	w8, #4
	b.ne	.LBB16_20
.Ltmp1286:
	.loc	1 2483 80 is_stmt 0
	ldr	w9, [x24]
.Ltmp1287:
	.loc	1 2483 8
	cbnz	w9, .LBB16_142
.Ltmp1288:
.LBB16_20:
	.loc	1 2535 23 is_stmt 1
	ldr	w9, [x20, #668]
.Ltmp1289:
	.loc	1 2535 8 is_stmt 0
	cbnz	w9, .LBB16_22
.Ltmp1290:
	.loc	1 2536 28 is_stmt 1
	str	x25, [x20, #432]
.Ltmp1291:
.LBB16_22:
	.loc	1 2538 17
	ldr	w2, [x25, #40]
	.loc	1 2538 4 is_stmt 0
	cmp	w2, #23
	b.hi	.LBB16_325
.Ltmp1292:
	.loc	1 0 4
	lsl	w9, w19, w2
	tst	w9, #0x1ff80
	b.ne	.LBB16_41
.Ltmp1293:
	mov	w10, #124
	movk	w10, #34, lsl #16
	tst	w9, w10
	b.eq	.LBB16_186
.Ltmp1294:
	mov	w23, #1
	mov	w19, #2
.Ltmp1295:
	.loc	1 2597 19 is_stmt 1
	ldr	w8, [x24]
.Ltmp1296:
	.loc	1 2597 9 is_stmt 0
	cbnz	w8, .LBB16_42
	b	.LBB16_52
.Ltmp1297:
.LBB16_26:
	.loc	1 2484 36 is_stmt 1
	cmp	w8, #3
	b.ne	.LBB16_142
.Ltmp1298:
	.loc	1 2487 56
	ldr	w8, [x24]
.Ltmp1299:
	.loc	1 2487 16 is_stmt 0
	cbz	w8, .LBB16_142
.Ltmp1300:
	.loc	1 2489 6 is_stmt 1
	ldr	w8, [x20, #792]
.Ltmp1301:
	.loc	1 2489 6 is_stmt 0
	cmp	w8, #1
	b.ge	.LBB16_320
.Ltmp1302:
.LBB16_29:
	.loc	1 2490 6 is_stmt 1
	add	x0, sp, #24
	mov	w1, wzr
	stp	xzr, xzr, [sp, #48]
	stp	xzr, xzr, [sp, #32]
	str	xzr, [sp, #24]
.Ltmp1303:
	bl	init_wait_entry
.Ltmp1304:
.LBB16_30:
	.loc	1 2490 6 is_stmt 0
	add	x1, sp, #24
	mov	x0, x26
	mov	w2, #1
	bl	prepare_to_wait_event
.Ltmp1305:
	.loc	1 2490 6
	ldr	w8, [x24]
.Ltmp1306:
	.loc	1 2490 6
	cbz	w8, .LBB16_140
.Ltmp1307:
	cbnz	x0, .LBB16_141
.Ltmp1308:
	bl	schedule
.Ltmp1309:
	.loc	1 0 6
	b	.LBB16_30
.Ltmp1310:
.LBB16_33:
	.loc	1 2695 5 is_stmt 1
	add	x0, sp, #24
	mov	w1, wzr
	stp	xzr, xzr, [sp, #48]
	stp	xzr, xzr, [sp, #32]
	str	xzr, [sp, #24]
.Ltmp1311:
	bl	init_wait_entry
.Ltmp1312:
	.loc	1 2695 5 is_stmt 0
	add	x1, sp, #24
	mov	x0, x26
	mov	w2, #1
	bl	prepare_to_wait_event
.Ltmp1313:
	.loc	1 2695 5
	ldr	w8, [x20, #308]
.Ltmp1314:
	.loc	1 2695 5
	cbz	w8, .LBB16_47
.Ltmp1315:
.LBB16_34:
	.loc	1 2695 5
	add	x1, sp, #24
	mov	x0, x26
	bl	finish_wait
.Ltmp1316:
	.loc	1 2696 19 is_stmt 1
	ldr	w8, [x20, #308]
.Ltmp1317:
	.loc	1 2696 9 is_stmt 0
	cbnz	w8, .LBB16_3
.Ltmp1318:
.LBB16_35:
	.loc	1 2703 23 is_stmt 1
	ldr	w8, [x24]
.Ltmp1319:
	.loc	1 2703 8 is_stmt 0
	cmp	w8, #1
	b.ne	.LBB16_138
.Ltmp1320:
	.loc	1 2704 5 is_stmt 1
	add	x0, sp, #24
	mov	w1, wzr
	stp	xzr, xzr, [sp, #48]
	stp	xzr, xzr, [sp, #32]
	str	xzr, [sp, #24]
.Ltmp1321:
	bl	init_wait_entry
.Ltmp1322:
.LBB16_37:
	.loc	1 2704 5 is_stmt 0
	add	x1, sp, #24
	mov	x0, x26
	mov	w2, #1
	bl	prepare_to_wait_event
.Ltmp1323:
	.loc	1 2704 5
	ldr	w8, [x24]
.Ltmp1324:
	cbz	w8, .LBB16_181
.Ltmp1325:
	ldr	w8, [x20, #308]
.Ltmp1326:
	.loc	1 2704 5
	cbnz	w8, .LBB16_181
.Ltmp1327:
	cbnz	x0, .LBB16_182
.Ltmp1328:
	bl	schedule
.Ltmp1329:
	.loc	1 0 5
	b	.LBB16_37
.Ltmp1330:
.LBB16_41:
	mov	w23, #1
	mov	w19, #1
.Ltmp1331:
	.loc	1 2597 19 is_stmt 1
	ldr	w8, [x24]
.Ltmp1332:
	.loc	1 2597 9 is_stmt 0
	cbz	w8, .LBB16_52
.Ltmp1333:
.LBB16_42:
	.loc	1 2598 6 is_stmt 1
	ldr	w8, [x20, #792]
.Ltmp1334:
	.loc	1 2598 6 is_stmt 0
	cmp	w8, #1
	b.ge	.LBB16_227
.Ltmp1335:
.LBB16_43:
	.loc	1 2599 6 is_stmt 1
	add	x0, sp, #24
	mov	w1, wzr
	stp	xzr, xzr, [sp, #48]
	stp	xzr, xzr, [sp, #32]
	str	xzr, [sp, #24]
.Ltmp1336:
	bl	init_wait_entry
.Ltmp1337:
.LBB16_44:
	.loc	1 2599 6 is_stmt 0
	add	x1, sp, #24
	mov	x0, x26
	mov	w2, #1
	bl	prepare_to_wait_event
.Ltmp1338:
	.loc	1 2599 6
	ldr	w8, [x24]
.Ltmp1339:
	.loc	1 2599 6
	cbz	w8, .LBB16_51
.Ltmp1340:
	cbnz	x0, .LBB16_52
.Ltmp1341:
	bl	schedule
.Ltmp1342:
	.loc	1 0 6
	b	.LBB16_44
.Ltmp1343:
.LBB16_47:
	mov	w8, #13
.Ltmp1344:
.LBB16_48:
	.loc	1 2695 5 is_stmt 1
	cbnz	x0, .LBB16_35
.Ltmp1345:
	mov	x0, x8
.Ltmp1346:
	bl	schedule_timeout
.Ltmp1347:
	mov	x25, x0
.Ltmp1348:
	add	x1, sp, #24
	mov	x0, x26
	mov	w2, #1
	bl	prepare_to_wait_event
.Ltmp1349:
	.loc	1 2695 5 is_stmt 0
	ldr	w9, [x20, #308]
.Ltmp1350:
	.loc	1 2695 5
	cmp	x25, #0
.Ltmp1351:
	.loc	1 2695 5
	ccmp	w9, #0, #4, eq
.Ltmp1352:
	.loc	1 2695 5
	csinc	x8, x25, xzr, eq
.Ltmp1353:
	.loc	1 2695 5
	cbnz	w9, .LBB16_34
.Ltmp1354:
	cbnz	x8, .LBB16_48
	b	.LBB16_34
.Ltmp1355:
.LBB16_51:
	.loc	1 2599 6 is_stmt 1
	add	x1, sp, #24
	mov	x0, x26
	bl	finish_wait
.Ltmp1356:
.LBB16_52:
	.loc	1 2602 19
	ldr	w8, [x20, #464]
	.loc	1 2602 36 is_stmt 0
	sub	w8, w8, #3
	cmp	w8, #1
	b.hi	.LBB16_54
.Ltmp1357:
	.loc	1 2603 23 is_stmt 1
	ldr	x8, [x20, #432]
	.loc	1 2603 58 is_stmt 0
	ldr	x1, [x20, #368]
	.loc	1 2603 84
	ldrsw	x2, [x20, #244]
	.loc	1 2603 37
	ldr	x0, [x8, #16]
	.loc	1 2603 6
	bl	memcpy
.Ltmp1358:
.LBB16_54:
	.loc	1 2605 14 is_stmt 1
	ldr	w8, [x25, #40]
	.loc	1 2606 7
	sub	w9, w8, #2
	cmp	w9, #13
	b.hi	.LBB16_61
.Ltmp1359:
	.loc	1 2307 29
	ldr	w9, [x20, #244]
.Ltmp1360:
	.loc	1 0 29 is_stmt 0
	add	w10, w9, #7
	cmp	w9, #0
	csel	w10, w10, w9, lt
.Ltmp1361:
	.loc	1 2311 2 is_stmt 1
	cmp	w9, #8
	b.lt	.LBB16_59
.Ltmp1362:
	.loc	1 2607 41
	ldr	x9, [x20, #432]
.Ltmp1363:
	.loc	1 0 41 is_stmt 0
	asr	w10, w10, #3
.Ltmp1364:
	.loc	1 2308 37 is_stmt 1
	ldr	x11, [x25, #16]
.Ltmp1365:
	.loc	1 2309 37
	ldr	x9, [x9, #16]
.Ltmp1366:
.LBB16_57:
	.loc	1 2312 21
	ldr	x12, [x11]
.Ltmp1367:
	.loc	1 2313 21
	ldr	x13, [x9]
.Ltmp1368:
	.loc	1 2314 7
	cmp	x12, x13
	b.ne	.LBB16_61
.Ltmp1369:
	.loc	1 2313 30
	add	x9, x9, #8
.Ltmp1370:
	.loc	1 2312 30
	add	x11, x11, #8
.Ltmp1371:
	.loc	1 2311 16
	subs	w10, w10, #1
.Ltmp1372:
	.loc	1 2311 2 is_stmt 0
	b.ne	.LBB16_57
.Ltmp1373:
.LBB16_59:
	.loc	1 2608 7 is_stmt 1
	ldr	w8, [x20, #792]
.Ltmp1374:
	.loc	1 2608 7 is_stmt 0
	cmp	w8, #1
	b.ge	.LBB16_322
.Ltmp1375:
.LBB16_60:
	.loc	1 2610 30 is_stmt 1
	str	x25, [x20, #440]
	b	.LBB16_135
.Ltmp1376:
.LBB16_61:
	.loc	1 2616 19
	ldr	w9, [x20, #784]
	.loc	1 2616 33 is_stmt 0
	cmp	w9, #8
	b.lt	.LBB16_68
.Ltmp1377:
	.loc	1 2616 46
	ldr	w9, [x20, #780]
.Ltmp1378:
	.loc	1 2616 9
	cbz	w9, .LBB16_68
.Ltmp1379:
	.loc	1 2617 34 is_stmt 1
	sub	w9, w8, #12
	cmp	w9, #2
	b.hi	.LBB16_68
.Ltmp1380:
	.loc	1 2618 21
	ldr	w9, [x20, #776]
.Ltmp1381:
	.loc	1 2618 11 is_stmt 0
	cbz	w9, .LBB16_66
.Ltmp1382:
	.loc	1 2619 25 is_stmt 1
	ldr	x8, [x20, #440]
	.loc	1 2619 60 is_stmt 0
	ldr	x1, [x20, #376]
	.loc	1 2619 85
	ldrsw	x2, [x20, #244]
	.loc	1 2619 39
	ldr	x0, [x8, #16]
	.loc	1 2619 8
	bl	memcpy
.Ltmp1383:
	.loc	1 2620 16 is_stmt 1
	ldr	w8, [x25, #40]
.Ltmp1384:
.LBB16_66:
	.loc	1 2620 38 is_stmt 0
	ldr	x9, [x20, #432]
	.loc	1 2620 52
	ldr	w10, [x9, #40]
.Ltmp1385:
	.loc	1 2620 11
	cmp	w8, w10
	b.eq	.LBB16_69
.Ltmp1386:
	.loc	1 2621 25 is_stmt 1
	ldr	x0, [x20, #376]
	.loc	1 2621 64 is_stmt 0
	ldr	x1, [x9, #16]
	.loc	1 2621 85
	ldrsw	x2, [x20, #244]
	.loc	1 2621 8
	bl	memcpy
.Ltmp1387:
	.loc	1 0 8
	b	.LBB16_69
.Ltmp1388:
.LBB16_68:
	str	wzr, [x20, #776]
.Ltmp1389:
.LBB16_69:
	.loc	1 2635 5 is_stmt 1
	mov	x0, x20
	mov	w1, #1
	bl	ebc_power_set
.Ltmp1390:
	.loc	1 2636 30
	ldr	w1, [x25, #40]
	.loc	1 2636 5 is_stmt 0
	mov	x0, x20
	bl	ebc_lut_update
.Ltmp1391:
	.loc	1 2640 28 is_stmt 1
	str	x25, [x20, #440]
.Ltmp1392:
	.loc	1 0 0 is_stmt 0
	ldrb	w9, [x20, #320]
	.loc	1 2641 14 is_stmt 1
	ldr	w8, [x25, #40]
	.loc	1 2641 23 is_stmt 0
	cmp	w8, #13
	cset	w8, eq
.Ltmp1393:
	.loc	1 2641 9
	lsr	w8, w9, w8
.Ltmp1394:
	.loc	1 0 0
	strb	w8, [x20, #272]
.Ltmp1395:
.LBB16_70:
	.loc	1 2646 5 is_stmt 1
	ldr	w8, [x20, #792]
.Ltmp1396:
	.loc	1 2646 5 is_stmt 0
	cmp	w8, #1
	b.ge	.LBB16_107
.Ltmp1397:
.LBB16_71:
	.loc	1 2649 5 is_stmt 1
	mov	x0, x20
	.loc	1 2647 27
	str	w23, [x20, #268]
	.loc	1 2648 24
	str	w19, [x20, #464]
	.loc	1 2649 5
	bl	ebc_frame_start
.Ltmp1398:
	.loc	1 2650 39
	adrp	x8, jiffies
	ldr	x8, [x8, :lo12:jiffies]
.Ltmp1399:
	.loc	1 0 39 is_stmt 0
	ldr	x0, [sp, #8]
	.loc	1 2650 47
	add	x1, x8, #750
	.loc	1 2650 5
	bl	mod_timer
.Ltmp1400:
	.loc	1 2651 14 is_stmt 1
	ldr	w8, [x25, #40]
	.loc	1 2651 33 is_stmt 0
	sub	w8, w8, #12
	cmp	w8, #2
	b.hi	.LBB16_110
.Ltmp1401:
	.loc	1 2652 20 is_stmt 1
	ldr	w8, [x20, #784]
	.loc	1 2652 34 is_stmt 0
	cmp	w8, #8
	b.lt	.LBB16_110
.Ltmp1402:
	.loc	1 2652 47
	ldr	w8, [x20, #780]
.Ltmp1403:
	.loc	1 2652 10
	cbz	w8, .LBB16_110
.Ltmp1404:
	.loc	1 2653 7 is_stmt 1
	ldr	w9, [x20, #792]
.Ltmp1405:
	.loc	1 2653 7 is_stmt 0
	cmp	w9, #1
	b.ge	.LBB16_133
.Ltmp1406:
.LBB16_75:
	.loc	1 2654 79 is_stmt 1
	ldr	w9, [x20, #300]
.Ltmp1407:
	.loc	1 2329 2
	cmp	w9, #1
	b.lt	.LBB16_108
.Ltmp1408:
	.loc	1 0 2 is_stmt 0
	ldrsw	x11, [x20, #304]
	mov	x10, xzr
	ldr	x14, [x20, #440]
	mov	x17, xzr
	mov	w3, wzr
	ldr	x13, [x20, #376]
.Ltmp1409:
	and	x12, x11, #0xffffffff
.Ltmp1410:
	mov	x16, #-1
	ldr	x14, [x14, #16]
.Ltmp1411:
	.loc	1 2329 2
	neg	w15, w12
	mov	x0, x12
	b	.LBB16_78
.Ltmp1412:
.LBB16_77:
	add	x10, x10, x12
	add	x0, x0, x12
	add	x15, x15, x12
	add	x16, x16, x12
	mov	x17, x1
	cmp	x1, x9
.Ltmp1413:
	b.eq	.LBB16_109
.Ltmp1414:
.LBB16_78:
	.loc	1 0 2
	add	x1, x17, #1
.Ltmp1415:
	.loc	1 2330 3 is_stmt 1
	cmp	w11, #1
	b.lt	.LBB16_77
.Ltmp1416:
	.loc	1 0 3 is_stmt 0
	mov	x2, xzr
	b	.LBB16_82
.Ltmp1417:
.LBB16_80:
	mov	w3, #1
.Ltmp1418:
	strb	w28, [x13, x4]
.Ltmp1419:
.LBB16_81:
	.loc	1 2330 31
	add	x2, x2, #1
.Ltmp1420:
	.loc	1 2330 3
	cmp	x12, x2
	b.eq	.LBB16_77
.Ltmp1421:
.LBB16_82:
	.loc	1 2332 20 is_stmt 1
	add	w4, w10, w2
	sxtw	x4, w4
	ldrb	w6, [x13, x4]
.Ltmp1422:
	.loc	1 2333 20
	ldrb	w5, [x14, x4]
.Ltmp1423:
	.loc	1 2337 8
	cmp	w6, w5
	b.eq	.LBB16_81
.Ltmp1424:
	.loc	1 2338 27
	cmp	w8, #2
	b.ne	.LBB16_86
.Ltmp1425:
	cmp	w6, #248
	b.ne	.LBB16_86
.Ltmp1426:
	cmp	w5, #240
	b.eq	.LBB16_80
.Ltmp1427:
.LBB16_86:
	.loc	1 2342 40
	cmp	w6, #31
	b.hi	.LBB16_103
.Ltmp1428:
	cmp	w5, #224
	b.lo	.LBB16_103
.Ltmp1429:
	.loc	1 2346 34
	strb	w22, [x13, x4]
.Ltmp1430:
	.loc	1 2363 25
	cbz	x2, .LBB16_92
.Ltmp1431:
	.loc	1 2367 34
	add	w3, w16, w2
	sxtw	x3, w3
	ldrb	w4, [x13, x3]
.Ltmp1432:
	.loc	1 2370 41
	cmp	w4, #224
	b.lo	.LBB16_92
.Ltmp1433:
	.loc	1 0 0 is_stmt 0
	ldrb	w4, [x14, x3]
.Ltmp1434:
	.loc	1 2370 41
	cmp	w4, #224
	b.lo	.LBB16_92
.Ltmp1435:
	.loc	1 2371 40 is_stmt 1
	strb	w28, [x13, x3]
.Ltmp1436:
.LBB16_92:
	.loc	1 2366 34
	cbz	x17, .LBB16_96
.Ltmp1437:
	.loc	1 2367 34
	add	w3, w15, w2
	sxtw	x3, w3
	ldrb	w4, [x13, x3]
.Ltmp1438:
	.loc	1 2370 41
	cmp	w4, #224
	b.lo	.LBB16_96
.Ltmp1439:
	.loc	1 0 0 is_stmt 0
	ldrb	w4, [x14, x3]
.Ltmp1440:
	.loc	1 2370 41
	cmp	w4, #224
	b.lo	.LBB16_96
.Ltmp1441:
	.loc	1 2371 40 is_stmt 1
	strb	w28, [x13, x3]
.Ltmp1442:
.LBB16_96:
	.loc	1 2366 34
	cmp	x1, x9
	b.hs	.LBB16_100
.Ltmp1443:
	.loc	1 2367 34
	add	w3, w0, w2
	sxtw	x3, w3
	ldrb	w4, [x13, x3]
.Ltmp1444:
	.loc	1 2370 41
	cmp	w4, #224
	b.lo	.LBB16_100
.Ltmp1445:
	.loc	1 0 0 is_stmt 0
	ldrb	w4, [x14, x3]
.Ltmp1446:
	.loc	1 2370 41
	cmp	w4, #224
	b.lo	.LBB16_100
.Ltmp1447:
	.loc	1 2371 40 is_stmt 1
	strb	w28, [x13, x3]
.Ltmp1448:
.LBB16_100:
	.loc	1 0 40 is_stmt 0
	add	x3, x2, #1
.Ltmp1449:
	.loc	1 2366 34 is_stmt 1
	cmp	x3, x11
	b.ge	.LBB16_106
.Ltmp1450:
	.loc	1 2367 34
	add	w3, w10, w2
	add	w3, w3, #1
	sxtw	x4, w3
	mov	w3, #1
.Ltmp1451:
	ldrb	w5, [x13, x4]
.Ltmp1452:
	.loc	1 2370 41
	cmp	w5, #224
	b.lo	.LBB16_81
.Ltmp1453:
	.loc	1 0 0 is_stmt 0
	ldrb	w5, [x14, x4]
.Ltmp1454:
	.loc	1 2370 41
	cmp	w5, #224
	b.hs	.LBB16_80
	b	.LBB16_81
.Ltmp1455:
.LBB16_103:
	.loc	1 2375 39 is_stmt 1
	cmp	w6, #224
	ccmp	w5, #31, #2, hs
	b.hi	.LBB16_105
.Ltmp1456:
	.loc	1 0 39 is_stmt 0
	mov	w3, #1
.Ltmp1457:
	.loc	1 2378 34 is_stmt 1
	mov	w5, #8
.Ltmp1458:
.LBB16_105:
	.loc	1 0 0 is_stmt 0
	strb	w5, [x13, x4]
	b	.LBB16_81
.Ltmp1459:
.LBB16_106:
	mov	w3, #1
	b	.LBB16_81
.Ltmp1460:
.LBB16_107:
	.loc	1 2646 5 is_stmt 1
	ldr	x8, [x20, #440]
	adrp	x1, .L.str.72
	ldr	x0, [x20, #312]
	add	x1, x1, :lo12:.L.str.72
	ldrb	w3, [x20, #272]
	ldr	w2, [x8, #40]
	bl	_dev_info
.Ltmp1461:
	.loc	1 0 5 is_stmt 0
	b	.LBB16_71
.Ltmp1462:
.LBB16_108:
	mov	w3, wzr
.Ltmp1463:
.LBB16_109:
	.loc	1 2654 32 is_stmt 1
	str	w3, [x20, #776]
.Ltmp1464:
.LBB16_110:
	.loc	1 2657 19
	ldr	w8, [x24]
.Ltmp1465:
	.loc	1 2657 9 is_stmt 0
	cbz	w8, .LBB16_117
.Ltmp1466:
	.loc	1 2658 6 is_stmt 1
	ldr	w8, [x20, #792]
.Ltmp1467:
	.loc	1 2658 6 is_stmt 0
	cmp	w8, #1
	b.ge	.LBB16_132
.Ltmp1468:
.LBB16_112:
	.loc	1 2659 6 is_stmt 1
	add	x0, sp, #24
	mov	w1, wzr
	stp	xzr, xzr, [sp, #48]
	stp	xzr, xzr, [sp, #32]
	str	xzr, [sp, #24]
.Ltmp1469:
	bl	init_wait_entry
.Ltmp1470:
.LBB16_113:
	.loc	1 2659 6 is_stmt 0
	add	x1, sp, #24
	mov	x0, x26
	mov	w2, #1
	bl	prepare_to_wait_event
.Ltmp1471:
	.loc	1 2659 6
	ldr	w8, [x24]
.Ltmp1472:
	.loc	1 2659 6
	cbz	w8, .LBB16_116
.Ltmp1473:
	cbnz	x0, .LBB16_117
.Ltmp1474:
	bl	schedule
.Ltmp1475:
	.loc	1 0 6
	b	.LBB16_113
.Ltmp1476:
.LBB16_116:
	.loc	1 2659 6
	add	x1, sp, #24
	mov	x0, x26
	bl	finish_wait
.Ltmp1477:
.LBB16_117:
	.loc	1 2661 14 is_stmt 1
	ldr	w8, [x25, #40]
	.loc	1 2661 33 is_stmt 0
	sub	w8, w8, #12
	cmp	w8, #2
	b.hi	.LBB16_134
.Ltmp1478:
	.loc	1 2662 11 is_stmt 1
	bl	ebc_get_dsp_list_enum_num
.Ltmp1479:
	.loc	1 2662 39 is_stmt 0
	cbnz	w0, .LBB16_134
.Ltmp1480:
	.loc	1 2662 52
	ldr	w8, [x20, #776]
	.loc	1 2662 67
	cbz	w8, .LBB16_134
.Ltmp1481:
	.loc	1 2662 80
	ldr	w8, [x20, #780]
.Ltmp1482:
	.loc	1 2662 10
	cbz	w8, .LBB16_134
.Ltmp1483:
	.loc	1 2663 7 is_stmt 1
	ldr	w8, [x20, #308]
.Ltmp1484:
	.loc	1 2663 7 is_stmt 0
	cbnz	w8, .LBB16_124
.Ltmp1485:
	.loc	1 2663 7
	add	x0, sp, #24
	mov	w1, wzr
	stp	xzr, xzr, [sp, #48]
	stp	xzr, xzr, [sp, #32]
	str	xzr, [sp, #24]
.Ltmp1486:
	bl	init_wait_entry
.Ltmp1487:
	.loc	1 2663 7
	add	x1, sp, #24
	mov	x0, x26
	mov	w2, #1
	bl	prepare_to_wait_event
.Ltmp1488:
	.loc	1 2663 7
	ldr	w8, [x20, #308]
.Ltmp1489:
	.loc	1 2663 7
	cbz	w8, .LBB16_127
.Ltmp1490:
.LBB16_123:
	.loc	1 2663 7
	add	x1, sp, #24
	mov	x0, x26
	bl	finish_wait
.Ltmp1491:
.LBB16_124:
	.loc	1 2664 12 is_stmt 1
	bl	ebc_get_dsp_list_enum_num
.Ltmp1492:
	.loc	1 2664 11 is_stmt 0
	cbnz	w0, .LBB16_134
.Ltmp1493:
	.loc	1 2666 8 is_stmt 1
	ldr	w8, [x20, #792]
.Ltmp1494:
	.loc	1 2666 8 is_stmt 0
	cmp	w8, #1
	b.ge	.LBB16_131
.Ltmp1495:
.LBB16_126:
	.loc	1 2667 25 is_stmt 1
	ldr	x8, [x20, #432]
	.loc	1 2667 60 is_stmt 0
	ldr	x1, [x20, #376]
	.loc	1 2667 85
	ldrsw	x2, [x20, #244]
	.loc	1 2667 39
	ldr	x0, [x8, #16]
	.loc	1 2667 8
	bl	memcpy
.Ltmp1496:
	.loc	1 0 8
	b	.LBB16_70
.Ltmp1497:
.LBB16_127:
	mov	w8, #3
.Ltmp1498:
.LBB16_128:
	.loc	1 2663 7 is_stmt 1
	cbnz	x0, .LBB16_124
.Ltmp1499:
	mov	x0, x8
.Ltmp1500:
	bl	schedule_timeout
.Ltmp1501:
	mov	x27, x0
.Ltmp1502:
	add	x1, sp, #24
	mov	x0, x26
	mov	w2, #1
	bl	prepare_to_wait_event
.Ltmp1503:
	.loc	1 2663 7 is_stmt 0
	ldr	w9, [x20, #308]
.Ltmp1504:
	.loc	1 2663 7
	cmp	x27, #0
.Ltmp1505:
	.loc	1 2663 7
	ccmp	w9, #0, #4, eq
.Ltmp1506:
	.loc	1 2663 7
	csinc	x8, x27, xzr, eq
.Ltmp1507:
	.loc	1 2663 7
	cbnz	w9, .LBB16_123
.Ltmp1508:
	cbnz	x8, .LBB16_128
	b	.LBB16_123
.Ltmp1509:
.LBB16_131:
	.loc	1 2666 8 is_stmt 1
	adrp	x1, .L.str.75
	ldr	x0, [x20, #312]
	add	x1, x1, :lo12:.L.str.75
	bl	_dev_info
.Ltmp1510:
	.loc	1 0 8 is_stmt 0
	b	.LBB16_126
.Ltmp1511:
.LBB16_132:
	.loc	1 2658 6 is_stmt 1
	adrp	x1, .L.str.74
	ldr	x0, [x20, #312]
	add	x1, x1, :lo12:.L.str.74
	bl	_dev_info
.Ltmp1512:
	.loc	1 2659 6
	ldr	w8, [x20, #268]
.Ltmp1513:
	.loc	1 2659 6 is_stmt 0
	cbnz	w8, .LBB16_112
	b	.LBB16_117
.Ltmp1514:
.LBB16_133:
	.loc	1 2653 7 is_stmt 1
	adrp	x1, .L.str.73
	ldr	x0, [x20, #312]
	add	x1, x1, :lo12:.L.str.73
	bl	_dev_info
.Ltmp1515:
	.loc	1 2654 169
	ldr	w8, [x20, #780]
	b	.LBB16_75
.Ltmp1516:
.LBB16_134:
	.loc	1 2673 39
	adrp	x8, jiffies
	.loc	1 2673 47 is_stmt 0
	mov	w9, #335544320
	.loc	1 2673 39
	ldr	x8, [x8, :lo12:jiffies]
.Ltmp1517:
	.loc	1 0 39
	ldr	x0, [sp, #8]
	.loc	1 2673 47
	add	x1, x8, x9
	.loc	1 2673 5
	bl	mod_timer
.Ltmp1518:
.LBB16_135:
	.loc	1 0 5
	mov	w19, #1
	mov	w23, #255
	b	.LBB16_176
.Ltmp1519:
.LBB16_136:
	.loc	1 2444 18 is_stmt 1
	ldr	w8, [x20, #464]
	.loc	1 2444 35 is_stmt 0
	sub	w9, w8, #1
	cmp	w9, #2
	b.hs	.LBB16_189
.Ltmp1520:
	.loc	1 2445 48 is_stmt 1
	ldr	x8, [x20, #432]
	.loc	1 2445 22 is_stmt 0
	ldr	x0, [x20, #368]
	.loc	1 2445 83
	ldrsw	x2, [x20, #244]
	.loc	1 2445 62
	ldr	x1, [x8, #16]
	.loc	1 2445 5
	bl	memcpy
.Ltmp1521:
	.loc	1 2446 48 is_stmt 1
	ldr	x8, [x20, #440]
	.loc	1 2446 22 is_stmt 0
	ldr	x0, [x20, #360]
	.loc	1 2446 83
	ldrsw	x2, [x20, #244]
	.loc	1 2446 62
	ldr	x1, [x8, #16]
	.loc	1 2446 5
	bl	memcpy
.Ltmp1522:
	.loc	1 0 5
	b	.LBB16_230
.Ltmp1523:
.LBB16_138:
	.loc	1 2711 9 is_stmt 1
	bl	ebc_get_dsp_list_enum_num
.Ltmp1524:
	.loc	1 2711 37 is_stmt 0
	cbnz	w0, .LBB16_3
.Ltmp1525:
	.loc	1 2711 40
	bl	ebc_get_osd_list_enum_num
.Ltmp1526:
	.loc	1 2711 9
	cbnz	w0, .LBB16_3
	b	.LBB16_207
.Ltmp1527:
.LBB16_140:
	.loc	1 2490 6 is_stmt 1
	add	x1, sp, #24
	mov	x0, x26
	bl	finish_wait
.Ltmp1528:
.LBB16_141:
	.loc	1 2491 6
	ldr	w8, [x20, #792]
.Ltmp1529:
	.loc	1 2491 6 is_stmt 0
	cmp	w8, #1
	b.ge	.LBB16_321
.Ltmp1530:
.LBB16_142:
	.loc	1 2494 43 is_stmt 1
	ldr	w9, [x25, #40]
	mov	w8, #14
.Ltmp1531:
	.loc	1 2165 2
	cmp	w9, #23
	b.hi	.LBB16_148
.Ltmp1532:
	.loc	1 0 2 is_stmt 0
	lsl	w9, w19, w9
	mov	w10, #16384
	movk	w10, #65, lsl #16
	tst	w9, w10
	b.ne	.LBB16_147
.Ltmp1533:
	tst	w9, #0x3000
	b.ne	.LBB16_152
.Ltmp1534:
	mov	w10, #32768
	movk	w10, #128, lsl #16
	tst	w9, w10
	b.eq	.LBB16_148
.Ltmp1535:
	mov	w8, #2
	b	.LBB16_148
.Ltmp1536:
.LBB16_147:
	mov	w8, #1
.Ltmp1537:
.LBB16_148:
	.loc	1 2495 20 is_stmt 1
	ldr	w9, [x20, #352]
	.loc	1 2495 48 is_stmt 0
	cmp	w9, #7
	b.eq	.LBB16_155
.Ltmp1538:
	.loc	1 2496 51 is_stmt 1
	cmp	w9, #1
	b.ne	.LBB16_153
.Ltmp1539:
.LBB16_150:
	cmp	w8, #1
	b.eq	.LBB16_163
.Ltmp1540:
	cmp	w8, #7
	b.eq	.LBB16_163
	b	.LBB16_155
.Ltmp1541:
.LBB16_152:
	.loc	1 2495 20
	ldr	w9, [x20, #352]
	mov	w8, #7
	.loc	1 2496 51
	cmp	w9, #1
	b.eq	.LBB16_150
.Ltmp1542:
.LBB16_153:
	.loc	1 2497 51
	cmp	w9, #2
	b.ne	.LBB16_163
.Ltmp1543:
	cmp	w8, #14
	b.ne	.LBB16_163
.Ltmp1544:
.LBB16_155:
	.loc	1 2498 20
	ldr	w8, [x24]
.Ltmp1545:
	.loc	1 2498 10 is_stmt 0
	cbz	w8, .LBB16_163
.Ltmp1546:
	.loc	1 2499 7 is_stmt 1
	ldr	w8, [x20, #792]
.Ltmp1547:
	.loc	1 2499 7 is_stmt 0
	cmp	w8, #1
	b.ge	.LBB16_204
.Ltmp1548:
.LBB16_157:
	.loc	1 2500 7 is_stmt 1
	add	x0, sp, #24
	mov	w1, wzr
	stp	xzr, xzr, [sp, #48]
	stp	xzr, xzr, [sp, #32]
	str	xzr, [sp, #24]
.Ltmp1549:
	bl	init_wait_entry
.Ltmp1550:
.LBB16_158:
	.loc	1 2500 7 is_stmt 0
	add	x1, sp, #24
	mov	x0, x26
	mov	w2, #1
	bl	prepare_to_wait_event
.Ltmp1551:
	.loc	1 2500 7
	ldr	w8, [x24]
.Ltmp1552:
	.loc	1 2500 7
	cbz	w8, .LBB16_161
.Ltmp1553:
	cbnz	x0, .LBB16_162
.Ltmp1554:
	bl	schedule
.Ltmp1555:
	.loc	1 0 7
	b	.LBB16_158
.Ltmp1556:
.LBB16_161:
	.loc	1 2500 7
	add	x1, sp, #24
	mov	x0, x26
	bl	finish_wait
.Ltmp1557:
.LBB16_162:
	.loc	1 2501 7 is_stmt 1
	ldr	w8, [x20, #792]
.Ltmp1558:
	.loc	1 2501 7 is_stmt 0
	cmp	w8, #1
	b.ge	.LBB16_205
.Ltmp1559:
.LBB16_163:
	.loc	1 2505 24 is_stmt 1
	mov	w8, #4
	.loc	1 2506 28
	str	x25, [x20, #440]
	.loc	1 2510 26
	ldp	x3, x4, [x20, #384]
	.loc	1 2505 24
	str	w8, [x20, #464]
	.loc	1 2507 40
	ldr	x0, [x20, #360]
	.loc	1 2508 26
	ldr	x1, [x20, #232]
	.loc	1 2509 40
	ldr	x2, [x25, #16]
	ldr	x5, [sp, #16]
	.loc	1 2507 5
	bl	refresh_new_image
.Ltmp1560:
	.loc	1 2513 24
	ldr	w8, [x20, #268]
.Ltmp1561:
	.loc	1 2513 9 is_stmt 0
	cbnz	w8, .LBB16_174
.Ltmp1562:
	.loc	1 2515 6 is_stmt 1
	mov	x0, x20
	mov	w1, #1
	.loc	1 2514 28
	str	w19, [x20, #268]
	.loc	1 2515 6
	bl	ebc_power_set
.Ltmp1563:
	.loc	1 2516 31
	ldr	w1, [x25, #40]
	.loc	1 2516 6 is_stmt 0
	mov	x0, x20
	bl	ebc_lut_update
.Ltmp1564:
	.loc	1 2519 6 is_stmt 1
	ldr	w9, [x20, #792]
.Ltmp1565:
	.loc	1 2517 55
	ldr	w8, [x20, #320]
.Ltmp1566:
	.loc	1 2519 6
	cmp	w9, #1
.Ltmp1567:
	.loc	1 2518 31
	strh	w8, [x20, #272]
.Ltmp1568:
	.loc	1 2519 6
	b.ge	.LBB16_206
.Ltmp1569:
.LBB16_165:
	.loc	1 0 0 is_stmt 0
	ldp	x4, x0, [x20, #392]
	ldp	x1, x2, [x20, #360]
	.loc	1 1638 13 is_stmt 1
	ldr	w8, [x20, #204]
	.loc	1 0 0 is_stmt 0
	ldr	x3, [x20, #384]
.Ltmp1570:
	.loc	1 1638 6
	cbz	w8, .LBB16_169
.Ltmp1571:
	.loc	1 0 6
	ldr	x5, [sp, #16]
.Ltmp1572:
	.loc	1 1639 3 is_stmt 1
	mov	w6, #1
	bl	get_overlay_image2
.Ltmp1573:
	.loc	1 1654 16
	ldr	w8, [x20, #276]
.Ltmp1574:
	.loc	1 1654 6 is_stmt 0
	cbz	w8, .LBB16_170
.Ltmp1575:
.LBB16_167:
	.loc	1 0 0
	ldp	x1, x2, [x20, #360]
	ldp	x3, x4, [x20, #384]
	.loc	1 1655 14 is_stmt 1
	ldr	w8, [x20, #204]
	.loc	1 0 0 is_stmt 0
	ldr	x0, [x20, #408]
.Ltmp1576:
	.loc	1 1655 7
	cbz	w8, .LBB16_172
.Ltmp1577:
	.loc	1 0 7
	ldr	x5, [sp, #16]
.Ltmp1578:
	.loc	1 1656 4 is_stmt 1
	mov	w6, #1
	bl	get_overlay_image2
.Ltmp1579:
	.loc	1 0 4 is_stmt 0
	b	.LBB16_173
.Ltmp1580:
.LBB16_169:
	ldr	x5, [sp, #16]
.Ltmp1581:
	.loc	1 1647 3 is_stmt 1
	mov	w6, #1
	bl	get_overlay_image
.Ltmp1582:
	.loc	1 1654 16
	ldr	w8, [x20, #276]
.Ltmp1583:
	.loc	1 1654 6 is_stmt 0
	cbnz	w8, .LBB16_167
.Ltmp1584:
.LBB16_170:
	.loc	1 1675 3 is_stmt 1
	ldr	w8, [x20, #792]
.Ltmp1585:
	.loc	1 1673 25
	str	wzr, [x20, #268]
	.loc	1 1674 31
	str	w19, [x20, #764]
.Ltmp1586:
	.loc	1 1675 3
	cmp	w8, #1
	b.lt	.LBB16_174
.Ltmp1587:
	.loc	1 1675 3 is_stmt 0
	adrp	x1, .L.str.86
	adrp	x2, .L__func__.ebc_overlay_bg_frame_start
	ldr	x0, [x20, #312]
	add	x1, x1, :lo12:.L.str.86
	add	x2, x2, :lo12:.L__func__.ebc_overlay_bg_frame_start
	bl	_dev_info
.Ltmp1588:
	.loc	1 0 3
	b	.LBB16_174
.Ltmp1589:
.LBB16_172:
	ldr	x5, [sp, #16]
.Ltmp1590:
	.loc	1 1664 4 is_stmt 1
	mov	w6, #1
	bl	get_overlay_image
.Ltmp1591:
.LBB16_173:
	.loc	1 1617 16
	ldp	w8, w9, [x20, #172]
	.loc	1 1617 42 is_stmt 0
	ldr	w10, [x20, #180]
	.loc	1 1619 2 is_stmt 1
	mov	w3, #1
	.loc	1 1619 36 is_stmt 0
	ldr	x0, [x20, #40]
.Ltmp1592:
	.loc	1 1629 24 is_stmt 1
	str	wzr, [x20, #112]
.Ltmp1593:
	.loc	1 1619 46
	ldr	x1, [x20, #72]
	.loc	1 1619 66 is_stmt 0
	ldrsw	x2, [x20, #248]
	.loc	1 1617 20 is_stmt 1
	add	w8, w9, w8
	.loc	1 1617 33 is_stmt 0
	add	w25, w8, w10
.Ltmp1594:
	.loc	1 1619 2 is_stmt 1
	bl	dma_sync_single_for_device
.Ltmp1595:
	.loc	1 1620 31
	ldr	x0, [x20, #48]
.Ltmp1596:
	.loc	170 77 9
	mov	w1, wzr
	mov	w2, wzr
	mov	w3, wzr
	mov	w4, wzr
	.loc	170 77 15 is_stmt 0
	ldr	x8, [x0, #88]
	.loc	170 77 9
	blr	x8
.Ltmp1597:
	.loc	1 1621 33 is_stmt 1
	ldr	x0, [x20, #48]
.Ltmp1598:
	.loc	170 82 2
	mov	w2, wzr
.Ltmp1599:
	.loc	1 1621 44
	ldr	w1, [x20, #72]
.Ltmp1600:
	.loc	170 82 8
	ldr	x8, [x0, #96]
	.loc	170 82 2 is_stmt 0
	blr	x8
.Ltmp1601:
	.loc	1 1622 38 is_stmt 1
	ldr	x0, [x20, #48]
.Ltmp1602:
	.loc	170 107 2
	mov	w1, w25
	mov	w2, wzr
	.loc	170 107 8 is_stmt 0
	ldr	x8, [x0, #144]
	.loc	170 107 2
	blr	x8
.Ltmp1603:
	.loc	1 1623 30 is_stmt 1
	ldr	x0, [x20, #48]
.Ltmp1604:
	.loc	170 97 2
	mov	w1, #1
	.loc	170 97 8 is_stmt 0
	ldr	x8, [x0, #128]
	.loc	170 97 2
	blr	x8
.Ltmp1605:
	.loc	1 1624 37 is_stmt 1
	ldr	w8, [x20, #112]
	.loc	1 1624 28 is_stmt 0
	sub	w8, w19, w8
	.loc	1 1624 24
	str	w8, [x20, #112]
.Ltmp1606:
.LBB16_174:
	.loc	1 2522 19 is_stmt 1
	ldr	x8, [x20, #440]
	.loc	1 2522 33 is_stmt 0
	ldr	w8, [x8, #40]
	.loc	1 2523 6 is_stmt 1
	cmp	w8, #23
	b.hi	.LBB16_178
.Ltmp1607:
	.loc	1 0 6 is_stmt 0
	mov	w9, #1
	lsl	w8, w19, w8
	movk	w9, #192, lsl #16
	tst	w8, w9
	b.eq	.LBB16_178
.Ltmp1608:
.LBB16_176:
	.loc	1 2685 18 is_stmt 1
	ldr	w8, [x20, #668]
.Ltmp1609:
	.loc	1 2685 8 is_stmt 0
	cbz	w8, .LBB16_1
.Ltmp1610:
	.loc	1 2686 31 is_stmt 1
	ldr	x0, [x20, #432]
	.loc	1 2686 5 is_stmt 0
	bl	ebc_buf_release
.Ltmp1611:
	.loc	1 0 5
	b	.LBB16_2
.Ltmp1612:
.LBB16_178:
	.loc	1 2525 19 is_stmt 1
	ldr	w8, [x24]
.Ltmp1613:
	.loc	1 2522 9
	cbz	w8, .LBB16_176
.Ltmp1614:
	.loc	1 2528 6
	ldr	w8, [x20, #792]
.Ltmp1615:
	.loc	1 2527 34
	str	wzr, [x20, #764]
.Ltmp1616:
	.loc	1 2528 6
	cmp	w8, #1
	b.ge	.LBB16_311
.Ltmp1617:
.LBB16_180:
	.loc	1 2529 48
	adrp	x8, jiffies
	.loc	1 2529 97 is_stmt 0
	mov	w9, #14
	.loc	1 2529 48
	ldr	x19, [x8, :lo12:jiffies]
	.loc	1 2529 85
	ldrb	w8, [x20, #272]
	.loc	1 2529 97
	mul	w0, w8, w9
.Ltmp1618:
	.file	209 "/home/lyx/rk-android14/kernel-6.1" "./include/linux/jiffies.h"
	.loc	209 370 10 is_stmt 1
	bl	__msecs_to_jiffies
.Ltmp1619:
	.loc	1 2529 56
	add	x1, x0, x19
	ldr	x0, [sp]
	.loc	1 2529 6 is_stmt 0
	bl	mod_timer
.Ltmp1620:
	.loc	1 0 6
	mov	w19, #1
	b	.LBB16_176
.Ltmp1621:
.LBB16_181:
	.loc	1 2704 5 is_stmt 1
	add	x1, sp, #24
	mov	x0, x26
	bl	finish_wait
.Ltmp1622:
.LBB16_182:
	.loc	1 2706 9
	bl	ebc_get_dsp_list_enum_num
.Ltmp1623:
	.loc	1 2706 37 is_stmt 0
	cbnz	w0, .LBB16_3
.Ltmp1624:
	.loc	1 2706 40
	bl	ebc_get_osd_list_enum_num
.Ltmp1625:
	.loc	1 2706 9
	cbnz	w0, .LBB16_3
.Ltmp1626:
	.loc	1 2708 24 is_stmt 1
	ldr	w8, [x24]
.Ltmp1627:
	.loc	1 2708 9 is_stmt 0
	cbz	w8, .LBB16_207
.Ltmp1628:
	.loc	1 2715 18 is_stmt 1
	ldr	w8, [x20, #308]
.Ltmp1629:
	.loc	1 2715 8 is_stmt 0
	cbnz	w8, .LBB16_319
	b	.LBB16_208
.Ltmp1630:
.LBB16_186:
	.loc	1 0 8
	mov	w10, #1
	movk	w10, #192, lsl #16
	tst	w9, w10
	b.eq	.LBB16_325
.Ltmp1631:
	.loc	1 2543 36 is_stmt 1
	sub	w9, w8, #1
.Ltmp1632:
	.loc	1 2542 28
	str	x25, [x20, #440]
.Ltmp1633:
	.loc	1 2543 36
	cmp	w9, #2
	b.hs	.LBB16_197
.Ltmp1634:
	.loc	1 2544 49
	ldr	x8, [x20, #432]
	.loc	1 2544 23 is_stmt 0
	ldr	x0, [x20, #368]
	.loc	1 2544 84
	ldrsw	x2, [x20, #244]
	.loc	1 2544 63
	ldr	x1, [x8, #16]
	.loc	1 2544 6
	bl	memcpy
.Ltmp1635:
	.loc	1 0 6
	b	.LBB16_314
.Ltmp1636:
.LBB16_189:
	.loc	1 2444 35 is_stmt 1
	cmp	w8, #3
	b.ne	.LBB16_230
.Ltmp1637:
	.loc	1 2447 55
	ldr	w8, [x24]
.Ltmp1638:
	.loc	1 2447 15 is_stmt 0
	cbz	w8, .LBB16_230
.Ltmp1639:
	.loc	1 2449 5 is_stmt 1
	ldr	w8, [x20, #792]
.Ltmp1640:
	.loc	1 2449 5 is_stmt 0
	cmp	w8, #1
	b.ge	.LBB16_326
.Ltmp1641:
.LBB16_192:
	.loc	1 2450 5 is_stmt 1
	add	x0, sp, #24
	mov	w1, wzr
	stp	xzr, xzr, [sp, #48]
	stp	xzr, xzr, [sp, #32]
	str	xzr, [sp, #24]
.Ltmp1642:
	bl	init_wait_entry
.Ltmp1643:
.LBB16_193:
	.loc	1 2450 5 is_stmt 0
	add	x1, sp, #24
	mov	x0, x26
	mov	w2, #1
	bl	prepare_to_wait_event
.Ltmp1644:
	.loc	1 2450 5
	ldr	w8, [x24]
.Ltmp1645:
	.loc	1 2450 5
	cbz	w8, .LBB16_228
.Ltmp1646:
	cbnz	x0, .LBB16_229
.Ltmp1647:
	bl	schedule
.Ltmp1648:
	.loc	1 0 5
	b	.LBB16_193
.Ltmp1649:
.LBB16_196:
	.loc	1 2439 5 is_stmt 1
	adrp	x1, .L.str.63
	ldr	x0, [x20, #312]
	add	x1, x1, :lo12:.L.str.63
	bl	_dev_info
.Ltmp1650:
	.loc	1 0 5 is_stmt 0
	b	.LBB16_15
.Ltmp1651:
.LBB16_197:
	.loc	1 2543 36 is_stmt 1
	cmp	w8, #4
	b.ne	.LBB16_212
.Ltmp1652:
	.loc	1 2546 59
	ldr	w8, [x24]
.Ltmp1653:
	.loc	1 2546 16 is_stmt 0
	cbz	w8, .LBB16_212
.Ltmp1654:
	.loc	1 2548 6 is_stmt 1
	ldr	w8, [x20, #792]
.Ltmp1655:
	.loc	1 2548 6 is_stmt 0
	cmp	w8, #1
	b.ge	.LBB16_329
.Ltmp1656:
.LBB16_200:
	.loc	1 2549 6 is_stmt 1
	add	x0, sp, #24
	mov	w1, wzr
	stp	xzr, xzr, [sp, #48]
	stp	xzr, xzr, [sp, #32]
	str	xzr, [sp, #24]
.Ltmp1657:
	bl	init_wait_entry
.Ltmp1658:
.LBB16_201:
	.loc	1 2549 6 is_stmt 0
	add	x1, sp, #24
	mov	x0, x26
	mov	w2, #1
	bl	prepare_to_wait_event
.Ltmp1659:
	.loc	1 2549 6
	ldr	w8, [x24]
.Ltmp1660:
	.loc	1 2549 6
	cbz	w8, .LBB16_312
.Ltmp1661:
	cbnz	x0, .LBB16_313
.Ltmp1662:
	bl	schedule
.Ltmp1663:
	.loc	1 0 6
	b	.LBB16_201
.Ltmp1664:
.LBB16_204:
	.loc	1 2499 7 is_stmt 1
	adrp	x1, .L.str.64
	ldr	x0, [x20, #312]
	add	x1, x1, :lo12:.L.str.64
	bl	_dev_info
.Ltmp1665:
	.loc	1 2500 7
	ldr	w8, [x20, #268]
.Ltmp1666:
	.loc	1 2500 7 is_stmt 0
	cbnz	w8, .LBB16_157
	b	.LBB16_162
.Ltmp1667:
.LBB16_205:
	.loc	1 2501 7 is_stmt 1
	adrp	x1, .L.str.65
	ldr	x0, [x20, #312]
	add	x1, x1, :lo12:.L.str.65
	bl	_dev_info
.Ltmp1668:
	.loc	1 0 7 is_stmt 0
	b	.LBB16_163
.Ltmp1669:
.LBB16_206:
	.loc	1 2519 6 is_stmt 1
	ldr	x9, [x20, #440]
	adrp	x1, .L.str.67
	ldr	x0, [x20, #312]
	and	w3, w8, #0xff
	add	x1, x1, :lo12:.L.str.67
	ldr	w2, [x9, #40]
	bl	_dev_info
.Ltmp1670:
	.loc	1 0 6 is_stmt 0
	b	.LBB16_165
.Ltmp1671:
.LBB16_207:
	mov	x0, x20
	mov	w1, wzr
	bl	ebc_power_set
.Ltmp1672:
	.loc	1 2715 18 is_stmt 1
	ldr	w8, [x20, #308]
	cbnz	w8, .LBB16_319
.Ltmp1673:
.LBB16_208:
	.loc	1 2716 5
	add	x0, sp, #24
	mov	w1, wzr
	stp	xzr, xzr, [sp, #48]
	stp	xzr, xzr, [sp, #32]
	str	xzr, [sp, #24]
.Ltmp1674:
	bl	init_wait_entry
.Ltmp1675:
.LBB16_209:
	.loc	1 2716 5 is_stmt 0
	add	x1, sp, #24
	mov	x0, x26
	mov	w2, #1
	bl	prepare_to_wait_event
.Ltmp1676:
	.loc	1 2716 5
	ldr	w8, [x20, #308]
.Ltmp1677:
	.loc	1 2716 5
	cbnz	w8, .LBB16_318
.Ltmp1678:
	cbnz	x0, .LBB16_319
.Ltmp1679:
	bl	schedule
.Ltmp1680:
	.loc	1 0 5
	b	.LBB16_209
.Ltmp1681:
.LBB16_212:
	.loc	1 2552 62 is_stmt 1
	ldr	x8, [x20, #432]
	.loc	1 2552 40 is_stmt 0
	ldr	w9, [x25, #40]
	.loc	1 2552 76
	ldr	w8, [x8, #40]
	.loc	1 2552 85
	cmp	w9, w8
	b.eq	.LBB16_219
.Ltmp1682:
	.loc	1 2552 98
	ldr	w8, [x24]
.Ltmp1683:
	.loc	1 2552 16
	cbz	w8, .LBB16_219
.Ltmp1684:
	.loc	1 2554 6 is_stmt 1
	ldr	w8, [x20, #792]
.Ltmp1685:
	.loc	1 2554 6 is_stmt 0
	cmp	w8, #1
	b.ge	.LBB16_330
.Ltmp1686:
.LBB16_215:
	.loc	1 2555 6 is_stmt 1
	add	x0, sp, #24
	mov	w1, wzr
	stp	xzr, xzr, [sp, #48]
	stp	xzr, xzr, [sp, #32]
	str	xzr, [sp, #24]
.Ltmp1687:
	bl	init_wait_entry
.Ltmp1688:
.LBB16_216:
	.loc	1 2555 6 is_stmt 0
	add	x1, sp, #24
	mov	x0, x26
	mov	w2, #1
	bl	prepare_to_wait_event
.Ltmp1689:
	.loc	1 2555 6
	ldr	w8, [x24]
.Ltmp1690:
	.loc	1 2555 6
	cbz	w8, .LBB16_312
.Ltmp1691:
	cbnz	x0, .LBB16_313
.Ltmp1692:
	bl	schedule
.Ltmp1693:
	.loc	1 0 6
	b	.LBB16_216
.Ltmp1694:
.LBB16_219:
	.loc	1 581 20 is_stmt 1
	ldr	w8, [x20, #304]
	.loc	1 582 21
	ldr	w9, [x20, #300]
.Ltmp1695:
	.loc	1 581 26
	add	w10, w8, #7
	cmp	w8, #0
	csel	w13, w10, w8, lt
.Ltmp1696:
	.loc	1 583 2
	cmp	w9, #1
	b.lt	.LBB16_315
.Ltmp1697:
	.loc	1 0 2 is_stmt 0
	mov	w10, wzr
	.loc	1 2561 29 is_stmt 1
	ldr	x11, [x20, #384]
	.loc	1 2560 43
	ldr	x12, [x25, #16]
	.loc	1 0 0 is_stmt 0
	asr	w13, w13, #3
	.loc	1 2559 46 is_stmt 1
	ldr	x14, [x20, #360]
	b	.LBB16_222
.Ltmp1698:
.LBB16_221:
	.loc	1 583 27
	add	w10, w10, #1
.Ltmp1699:
	.loc	1 583 2 is_stmt 0
	cmp	w10, w9
	b.eq	.LBB16_315
.Ltmp1700:
.LBB16_222:
	.loc	1 584 3 is_stmt 1
	cmp	w8, #8
	b.lt	.LBB16_221
.Ltmp1701:
	.loc	1 0 3 is_stmt 0
	mov	w15, w13
	b	.LBB16_225
.Ltmp1702:
.LBB16_224:
	add	x14, x14, #8
.Ltmp1703:
	.loc	1 584 17
	subs	w15, w15, #1
.Ltmp1704:
	.loc	1 584 3
	b.eq	.LBB16_221
.Ltmp1705:
.LBB16_225:
	.loc	1 586 20 is_stmt 1
	ldr	x16, [x12], #8
.Ltmp1706:
	.loc	1 587 21
	ldr	x17, [x14]
.Ltmp1707:
	.loc	1 585 23
	ldr	x0, [x11], #8
.Ltmp1708:
	.loc	1 590 8
	cmp	x16, x17
	b.eq	.LBB16_224
.Ltmp1709:
	.loc	1 595 8
	tst	x0, #0xff
	csel	x1, x23, xzr, eq
.Ltmp1710:
	.loc	1 599 8
	tst	x0, #0xff00
	orr	x2, x1, #0xff00
	csel	x1, x2, x1, eq
.Ltmp1711:
	.loc	1 603 8
	tst	x0, #0xff0000
	orr	x2, x1, #0xff0000
	csel	x1, x2, x1, eq
.Ltmp1712:
	.loc	1 607 8
	tst	x0, #0xff000000
	orr	x2, x1, #0xff000000
	csel	x1, x2, x1, eq
.Ltmp1713:
	.loc	1 611 8
	tst	x0, #0xff00000000
	orr	x2, x1, #0xff00000000
	csel	x1, x2, x1, eq
.Ltmp1714:
	.loc	1 615 8
	tst	x0, #0xff0000000000
	orr	x2, x1, #0xff0000000000
	csel	x1, x2, x1, eq
.Ltmp1715:
	.loc	1 619 8
	tst	x0, #0xff000000000000
	orr	x2, x1, #0xff000000000000
	.loc	1 623 8
	lsr	x0, x0, #56
.Ltmp1716:
	.loc	1 619 8
	csel	x1, x2, x1, eq
.Ltmp1717:
	.loc	1 623 8
	cmp	x0, #0
	orr	x2, x1, #0xff00000000000000
	csel	x0, x2, x1, eq
.Ltmp1718:
	.loc	1 626 19
	bic	x17, x17, x0
.Ltmp1719:
	.loc	1 627 36
	and	x16, x0, x16
.Ltmp1720:
	.loc	1 627 19 is_stmt 0
	orr	x16, x17, x16
.Ltmp1721:
	.loc	1 628 17 is_stmt 1
	str	x16, [x14]
	b	.LBB16_224
.Ltmp1722:
.LBB16_227:
	.loc	1 2598 6
	adrp	x1, .L.str.70
	ldr	x0, [x20, #312]
	add	x1, x1, :lo12:.L.str.70
	bl	_dev_info
.Ltmp1723:
	.loc	1 2599 6
	ldr	w8, [x20, #268]
.Ltmp1724:
	.loc	1 2599 6 is_stmt 0
	cbnz	w8, .LBB16_43
	b	.LBB16_52
.Ltmp1725:
.LBB16_228:
	.loc	1 2450 5 is_stmt 1
	add	x1, sp, #24
	mov	x0, x26
	bl	finish_wait
.Ltmp1726:
.LBB16_229:
	.loc	1 2451 5
	ldr	w8, [x20, #792]
.Ltmp1727:
	.loc	1 2451 5 is_stmt 0
	cmp	w8, #1
	b.ge	.LBB16_327
.Ltmp1728:
.LBB16_230:
	.loc	1 2454 23 is_stmt 1
	mov	w8, #4
	.loc	1 2453 27
	str	x25, [x20, #456]
.Ltmp1729:
	.loc	1 479 20
	ldr	w9, [x20, #304]
.Ltmp1730:
	.loc	1 2454 23
	str	w8, [x20, #464]
.Ltmp1731:
	.loc	1 474 35
	ldp	w10, w8, [x25, #48]
	.loc	1 475 36
	ldp	w12, w14, [x25, #56]
.Ltmp1732:
	.loc	1 474 42
	add	w11, w10, #7
	cmp	w10, #0
	.loc	1 475 43
	add	w13, w12, #7
	.loc	1 474 42
	csel	w11, w11, w10, lt
.Ltmp1733:
	.loc	1 475 43
	cmp	w12, #0
	.loc	1 479 26
	add	w10, w9, #7
	.loc	1 475 43
	csel	w12, w13, w12, lt
	.loc	1 479 26
	cmp	w9, #0
	.loc	1 475 43
	asr	w15, w12, #3
	.loc	1 479 26
	csel	w12, w10, w9, lt
	.loc	1 480 21
	ldr	w10, [x20, #300]
.Ltmp1734:
	.loc	1 475 48
	add	w9, w15, #1
.Ltmp1735:
	.loc	1 479 26
	asr	w13, w12, #3
.Ltmp1736:
	.loc	1 0 26 is_stmt 0
	sub	w16, w13, #1
	.loc	1 481 6 is_stmt 1
	cmp	w9, w13
	csinc	w9, w16, w15, ge
.Ltmp1737:
	.loc	1 483 6
	sub	w15, w10, #1
	cmp	w14, w10
	csel	w10, w14, w15, lt
.Ltmp1738:
	.loc	1 492 2
	cmp	w8, w10
	b.le	.LBB16_235
.Ltmp1739:
.LBB16_231:
	.loc	1 2461 23
	ldr	w8, [x24]
.Ltmp1740:
	.loc	1 2461 8 is_stmt 0
	cbz	w8, .LBB16_309
.Ltmp1741:
	.loc	1 2471 21 is_stmt 1
	adrp	x8, ebc_auto_task
	ldr	x0, [x8, :lo12:ebc_auto_task]
	.loc	1 2471 5 is_stmt 0
	bl	wake_up_process
.Ltmp1742:
	.loc	1 0 5
	mov	w19, #1
.Ltmp1743:
	.loc	1 2473 18 is_stmt 1
	ldr	x0, [x20, #448]
.Ltmp1744:
	.loc	1 2473 8 is_stmt 0
	cbz	x0, .LBB16_234
.Ltmp1745:
.LBB16_233:
	.loc	1 2474 5 is_stmt 1
	bl	ebc_buf_release
.Ltmp1746:
.LBB16_234:
	.loc	1 2475 39
	ldr	x8, [x20, #456]
	.loc	1 2475 27 is_stmt 0
	str	x8, [x20, #448]
.Ltmp1747:
	.loc	1 0 27
	b	.LBB16_3
.Ltmp1748:
.LBB16_235:
	.loc	1 2457 27 is_stmt 1
	ldr	x14, [x20, #440]
	mul	w13, w13, w8
	.loc	1 2459 27
	ldp	x16, x15, [x20, #384]
	sxtw	x13, w13
.Ltmp1749:
	.loc	1 0 27 is_stmt 0
	asr	w11, w11, #3
	.loc	1 2457 41 is_stmt 1
	ldr	x14, [x14, #16]
.Ltmp1750:
	.loc	1 490 11
	lsl	x0, x13, #3
.Ltmp1751:
	.loc	1 2456 41
	ldr	x17, [x25, #16]
.Ltmp1752:
	.loc	1 0 41 is_stmt 0
	sbfx	x2, x12, #3, #29
	.loc	1 2455 44 is_stmt 1
	ldr	x1, [x20, #360]
.Ltmp1753:
	.loc	1 489 14
	add	x13, x16, x0
.Ltmp1754:
	.loc	1 490 11
	add	x12, x15, x0
.Ltmp1755:
	.loc	1 488 11
	add	x14, x14, x0
.Ltmp1756:
	.loc	1 487 12
	add	x15, x17, x0
.Ltmp1757:
	.loc	1 492 2
	sxtw	x17, w11
.Ltmp1758:
	.loc	1 486 12
	add	x16, x1, x0
.Ltmp1759:
	.loc	1 492 2
	add	w0, w9, #1
	sxtw	x0, w0
	lsl	x1, x2, #3
	b	.LBB16_237
.Ltmp1760:
.LBB16_236:
	.loc	1 492 33 is_stmt 0
	add	w8, w8, #1
.Ltmp1761:
	.loc	1 492 2
	add	x12, x12, x1
	add	x13, x13, x1
	add	x14, x14, x1
	add	x15, x15, x1
	add	x16, x16, x1
	cmp	w8, w10
	b.gt	.LBB16_231
.Ltmp1762:
.LBB16_237:
	.loc	1 493 3 is_stmt 1
	cmp	w11, w9
	b.gt	.LBB16_236
.Ltmp1763:
	.loc	1 0 3 is_stmt 0
	mov	x2, x17
	b	.LBB16_241
.Ltmp1764:
.LBB16_239:
	.loc	1 508 4 is_stmt 1
	orr	x6, x6, #0xff00000000000000
.Ltmp1765:
.LBB16_240:
	.loc	1 510 19
	bic	x5, x5, x6
.Ltmp1766:
	.loc	1 511 36
	and	x6, x6, x25
.Ltmp1767:
	.loc	1 493 34
	add	x2, x2, #1
.Ltmp1768:
	.loc	1 511 19
	orr	x5, x5, x6
.Ltmp1769:
	.loc	1 493 3
	cmp	x0, x2
.Ltmp1770:
	.loc	1 512 20
	str	x4, [x12, x3]
	.loc	1 513 21
	str	x5, [x16, x3]
.Ltmp1771:
	.loc	1 493 3
	b.eq	.LBB16_236
.Ltmp1772:
.LBB16_241:
	.loc	1 494 21
	lsl	x3, x2, #3
	.loc	1 497 23
	ldr	x19, [x13, x3]
.Ltmp1773:
	.loc	1 494 21
	ldr	x5, [x16, x3]
.Ltmp1774:
	.loc	1 495 21
	ldr	x7, [x15, x3]
.Ltmp1775:
	.loc	1 498 20
	ldr	x4, [x12, x3]
.Ltmp1776:
	.loc	1 501 4
	tst	x19, #0xff
.Ltmp1777:
	.loc	1 501 4 is_stmt 0
	b.eq	.LBB16_243
.Ltmp1778:
	.loc	1 0 4
	mov	x6, xzr
	b	.LBB16_245
.Ltmp1779:
.LBB16_243:
	.loc	1 501 4
	and	x4, x4, #0xffffffffffffff00
.Ltmp1780:
	.loc	1 501 4
	and	x25, x7, #0xf0
.Ltmp1781:
	cmp	w25, #240
	b.ne	.LBB16_268
.Ltmp1782:
	.loc	1 0 4
	mov	w6, #255
.Ltmp1783:
.LBB16_245:
	.loc	1 502 4 is_stmt 1
	tst	x19, #0xff00
.Ltmp1784:
	.loc	1 502 4 is_stmt 0
	b.ne	.LBB16_248
.Ltmp1785:
	.loc	1 502 4
	and	x4, x4, #0xffffffffffff00ff
.Ltmp1786:
	.loc	1 502 4
	and	x25, x7, #0xf000
.Ltmp1787:
	cmp	w25, #15, lsl #12
	b.ne	.LBB16_270
.Ltmp1788:
	.loc	1 502 4
	orr	x6, x6, #0xff00
.Ltmp1789:
.LBB16_248:
	.loc	1 0 0
	ldr	x25, [x14, x3]
.Ltmp1790:
	.loc	1 503 4 is_stmt 1
	tst	x19, #0xff0000
.Ltmp1791:
	.loc	1 503 4 is_stmt 0
	b.eq	.LBB16_254
.Ltmp1792:
	.loc	1 504 4 is_stmt 1
	tst	x19, #0xff000000
.Ltmp1793:
	.loc	1 504 4 is_stmt 0
	b.eq	.LBB16_256
.Ltmp1794:
.LBB16_250:
	.loc	1 505 4 is_stmt 1
	tst	x19, #0xff00000000
.Ltmp1795:
	.loc	1 505 4 is_stmt 0
	b.eq	.LBB16_258
.Ltmp1796:
.LBB16_251:
	.loc	1 506 4 is_stmt 1
	tst	x19, #0xff0000000000
.Ltmp1797:
	.loc	1 506 4 is_stmt 0
	b.eq	.LBB16_260
.Ltmp1798:
.LBB16_252:
	.loc	1 507 4 is_stmt 1
	tst	x19, #0xff000000000000
.Ltmp1799:
	.loc	1 507 4 is_stmt 0
	b.eq	.LBB16_262
.Ltmp1800:
.LBB16_253:
	.loc	1 508 4 is_stmt 1
	lsr	x19, x19, #56
.Ltmp1801:
	cbnz	x19, .LBB16_240
	b	.LBB16_264
.Ltmp1802:
.LBB16_254:
	.loc	1 503 4
	and	x4, x4, #0xffffffffff00ffff
.Ltmp1803:
	.loc	1 503 4 is_stmt 0
	and	x27, x7, #0xf00000
.Ltmp1804:
	cmp	x27, #3840, lsl #12
	b.ne	.LBB16_272
.Ltmp1805:
	.loc	1 503 4
	orr	x6, x6, #0xff0000
.Ltmp1806:
	.loc	1 504 4 is_stmt 1
	tst	x19, #0xff000000
.Ltmp1807:
	.loc	1 504 4 is_stmt 0
	b.ne	.LBB16_250
.Ltmp1808:
.LBB16_256:
	.loc	1 504 4
	and	x4, x4, #0xffffffff00ffffff
.Ltmp1809:
	.loc	1 504 4
	and	x27, x7, #0xf0000000
.Ltmp1810:
	mov	w30, #-268435456
	cmp	w27, w30
	b.ne	.LBB16_276
.Ltmp1811:
	.loc	1 504 4
	orr	x6, x6, #0xff000000
.Ltmp1812:
	.loc	1 505 4 is_stmt 1
	tst	x19, #0xff00000000
.Ltmp1813:
	.loc	1 505 4 is_stmt 0
	b.ne	.LBB16_251
.Ltmp1814:
.LBB16_258:
	.loc	1 505 4
	and	x4, x4, #0xffffff00ffffffff
.Ltmp1815:
	.loc	1 505 4
	and	x27, x7, #0xf000000000
.Ltmp1816:
	mov	x30, #1030792151040
	cmp	x27, x30
	b.ne	.LBB16_278
.Ltmp1817:
	.loc	1 505 4
	orr	x6, x6, #0xff00000000
.Ltmp1818:
	.loc	1 506 4 is_stmt 1
	tst	x19, #0xff0000000000
.Ltmp1819:
	.loc	1 506 4 is_stmt 0
	b.ne	.LBB16_252
.Ltmp1820:
.LBB16_260:
	.loc	1 506 4
	and	x4, x4, #0xffff00ffffffffff
.Ltmp1821:
	.loc	1 506 4
	and	x27, x7, #0xf00000000000
.Ltmp1822:
	mov	x30, #263882790666240
	cmp	x27, x30
	b.ne	.LBB16_280
.Ltmp1823:
	.loc	1 506 4
	orr	x6, x6, #0xff0000000000
.Ltmp1824:
	.loc	1 507 4 is_stmt 1
	tst	x19, #0xff000000000000
.Ltmp1825:
	.loc	1 507 4 is_stmt 0
	b.ne	.LBB16_253
.Ltmp1826:
.LBB16_262:
	.loc	1 507 4
	and	x4, x4, #0xff00ffffffffffff
.Ltmp1827:
	.loc	1 507 4
	and	x27, x7, #0xf0000000000000
.Ltmp1828:
	cmp	x27, x21
	b.ne	.LBB16_282
.Ltmp1829:
	.loc	1 507 4
	orr	x6, x6, #0xff000000000000
.Ltmp1830:
	.loc	1 508 4 is_stmt 1
	lsr	x19, x19, #56
.Ltmp1831:
	cbnz	x19, .LBB16_240
.Ltmp1832:
.LBB16_264:
	.loc	1 508 4 is_stmt 0
	and	x4, x4, #0xffffffffffffff
.Ltmp1833:
	.loc	1 508 4
	lsr	x19, x7, #60
	cmp	x19, #15
	b.hs	.LBB16_239
.Ltmp1834:
	.loc	1 0 0
	and	x7, x7, #0xf000000000000000
.Ltmp1835:
	.loc	1 508 4
	mov	x19, #-2305843009213693952
	cmp	x7, x19
	b.eq	.LBB16_300
.Ltmp1836:
	.loc	1 508 4
	and	x5, x5, #0xffffffffffffff
.Ltmp1837:
	.loc	1 508 4
	cbnz	x7, .LBB16_301
.Ltmp1838:
	.loc	1 508 4
	orr	x4, x4, #0x100000000000000
.Ltmp1839:
	.loc	1 0 4
	b	.LBB16_240
.Ltmp1840:
.LBB16_268:
	.loc	1 501 4 is_stmt 1
	cbnz	w25, .LBB16_284
.Ltmp1841:
	.loc	1 0 4 is_stmt 0
	mov	x6, xzr
.Ltmp1842:
	.loc	1 501 4
	and	x5, x5, #0xffffffffffffff00
.Ltmp1843:
	orr	x4, x4, #0x1
.Ltmp1844:
	.loc	1 0 4
	b	.LBB16_245
.Ltmp1845:
.LBB16_270:
	.loc	1 502 4 is_stmt 1
	and	x5, x5, #0xffffffffffff00ff
.Ltmp1846:
	.loc	1 502 4 is_stmt 0
	cbnz	w25, .LBB16_286
.Ltmp1847:
	.loc	1 502 4
	orr	x4, x4, #0x100
.Ltmp1848:
	.loc	1 0 4
	b	.LBB16_248
.Ltmp1849:
.LBB16_272:
	.loc	1 503 4 is_stmt 1
	and	x5, x5, #0xffffffffff00ffff
.Ltmp1850:
	.loc	1 503 4 is_stmt 0
	cbz	x27, .LBB16_275
.Ltmp1851:
	cmp	x27, #3584, lsl #12
	b.ne	.LBB16_302
.Ltmp1852:
	.loc	1 503 4
	orr	x5, x5, #0xf00000
.Ltmp1853:
.LBB16_275:
	.loc	1 0 0
	orr	x4, x4, #0x10000
.Ltmp1854:
	.loc	1 504 4 is_stmt 1
	tst	x19, #0xff000000
.Ltmp1855:
	.loc	1 504 4 is_stmt 0
	b.ne	.LBB16_250
	b	.LBB16_256
.Ltmp1856:
.LBB16_276:
	.loc	1 504 4
	cbnz	w27, .LBB16_288
.Ltmp1857:
	.loc	1 504 4
	and	x5, x5, #0xffffffff00ffffff
.Ltmp1858:
	.loc	1 0 4
	b	.LBB16_290
.Ltmp1859:
.LBB16_278:
	.loc	1 505 4 is_stmt 1
	cbnz	x27, .LBB16_291
.Ltmp1860:
	.loc	1 505 4 is_stmt 0
	and	x5, x5, #0xffffff00ffffffff
.Ltmp1861:
	.loc	1 0 4
	b	.LBB16_293
.Ltmp1862:
.LBB16_280:
	.loc	1 506 4 is_stmt 1
	cbnz	x27, .LBB16_294
.Ltmp1863:
	.loc	1 506 4 is_stmt 0
	and	x5, x5, #0xffff00ffffffffff
.Ltmp1864:
	.loc	1 0 4
	b	.LBB16_296
.Ltmp1865:
.LBB16_282:
	.loc	1 507 4 is_stmt 1
	cbnz	x27, .LBB16_297
.Ltmp1866:
	.loc	1 507 4 is_stmt 0
	and	x5, x5, #0xff00ffffffffffff
.Ltmp1867:
	.loc	1 0 4
	b	.LBB16_299
.Ltmp1868:
.LBB16_284:
	.loc	1 501 4 is_stmt 1
	cmp	w25, #224
	b.ne	.LBB16_303
.Ltmp1869:
	.loc	1 501 4 is_stmt 0
	and	x5, x5, #0xffffffffffffff00
.Ltmp1870:
	.loc	1 0 4
	mov	x6, xzr
	.loc	1 501 4
	orr	x5, x5, #0xf0
.Ltmp1871:
	orr	x4, x4, #0x1
.Ltmp1872:
	.loc	1 0 4
	b	.LBB16_245
.Ltmp1873:
.LBB16_286:
	.loc	1 502 4 is_stmt 1
	cmp	w25, #14, lsl #12
	b.ne	.LBB16_304
.Ltmp1874:
	.loc	1 502 4 is_stmt 0
	orr	x5, x5, #0xf000
.Ltmp1875:
	orr	x4, x4, #0x100
.Ltmp1876:
	.loc	1 0 4
	b	.LBB16_248
.Ltmp1877:
.LBB16_288:
	.loc	1 504 4 is_stmt 1
	and	x5, x5, #0xffffffff00ffffff
.Ltmp1878:
	.loc	1 504 4 is_stmt 0
	mov	w30, #-536870912
	cmp	w27, w30
	b.ne	.LBB16_305
.Ltmp1879:
	.loc	1 504 4
	orr	x5, x5, #0xf0000000
.Ltmp1880:
.LBB16_290:
	.loc	1 0 0
	orr	x4, x4, #0x1000000
.Ltmp1881:
	.loc	1 505 4 is_stmt 1
	tst	x19, #0xff00000000
.Ltmp1882:
	.loc	1 505 4 is_stmt 0
	b.ne	.LBB16_251
	b	.LBB16_258
.Ltmp1883:
.LBB16_291:
	.loc	1 505 4
	and	x5, x5, #0xffffff00ffffffff
.Ltmp1884:
	.loc	1 505 4
	mov	x30, #962072674304
	cmp	x27, x30
	b.ne	.LBB16_306
.Ltmp1885:
	.loc	1 505 4
	orr	x5, x5, #0xf000000000
.Ltmp1886:
.LBB16_293:
	.loc	1 0 0
	orr	x4, x4, #0x100000000
.Ltmp1887:
	.loc	1 506 4 is_stmt 1
	tst	x19, #0xff0000000000
.Ltmp1888:
	.loc	1 506 4 is_stmt 0
	b.ne	.LBB16_252
	b	.LBB16_260
.Ltmp1889:
.LBB16_294:
	.loc	1 506 4
	and	x5, x5, #0xffff00ffffffffff
.Ltmp1890:
	.loc	1 506 4
	mov	x30, #246290604621824
	cmp	x27, x30
	b.ne	.LBB16_307
.Ltmp1891:
	.loc	1 506 4
	orr	x5, x5, #0xf00000000000
.Ltmp1892:
.LBB16_296:
	.loc	1 0 0
	orr	x4, x4, #0x10000000000
.Ltmp1893:
	.loc	1 507 4 is_stmt 1
	tst	x19, #0xff000000000000
.Ltmp1894:
	.loc	1 507 4 is_stmt 0
	b.ne	.LBB16_253
	b	.LBB16_262
.Ltmp1895:
.LBB16_297:
	.loc	1 507 4
	and	x5, x5, #0xff00ffffffffffff
.Ltmp1896:
	.loc	1 507 4
	mov	x30, #63050394783186944
	cmp	x27, x30
	b.ne	.LBB16_308
.Ltmp1897:
	.loc	1 507 4
	orr	x5, x5, #0xf0000000000000
.Ltmp1898:
.LBB16_299:
	.loc	1 0 0
	orr	x4, x4, #0x1000000000000
.Ltmp1899:
	.loc	1 508 4 is_stmt 1
	lsr	x19, x19, #56
.Ltmp1900:
	cbnz	x19, .LBB16_240
	b	.LBB16_264
.Ltmp1901:
.LBB16_300:
	.loc	1 508 4 is_stmt 0
	mov	x7, #-1152921504606846976
.Ltmp1902:
	orr	x4, x4, #0x100000000000000
.Ltmp1903:
	bfxil	x7, x5, #0, #56
.Ltmp1904:
	.loc	1 0 4
	mov	x5, x7
.Ltmp1905:
	b	.LBB16_240
.Ltmp1906:
.LBB16_301:
	.loc	1 508 4
	orr	x5, x5, x7
.Ltmp1907:
	.loc	1 0 4
	b	.LBB16_240
.Ltmp1908:
.LBB16_302:
	.loc	1 503 4 is_stmt 1
	orr	x5, x5, x27
.Ltmp1909:
	.loc	1 504 4
	tst	x19, #0xff000000
.Ltmp1910:
	.loc	1 504 4 is_stmt 0
	b.ne	.LBB16_250
	b	.LBB16_256
.Ltmp1911:
.LBB16_303:
	.loc	1 501 4 is_stmt 1
	and	x5, x5, #0xffffffffffffff00
.Ltmp1912:
	.loc	1 0 4 is_stmt 0
	mov	x6, xzr
	.loc	1 501 4
	orr	x5, x25, x5
.Ltmp1913:
	.loc	1 0 4
	b	.LBB16_245
.Ltmp1914:
.LBB16_304:
	.loc	1 502 4 is_stmt 1
	orr	x5, x5, x25
.Ltmp1915:
	.loc	1 0 4 is_stmt 0
	b	.LBB16_248
.Ltmp1916:
.LBB16_305:
	.loc	1 504 4 is_stmt 1
	orr	x5, x5, x27
.Ltmp1917:
	.loc	1 505 4
	tst	x19, #0xff00000000
.Ltmp1918:
	.loc	1 505 4 is_stmt 0
	b.ne	.LBB16_251
	b	.LBB16_258
.Ltmp1919:
.LBB16_306:
	.loc	1 505 4
	orr	x5, x5, x27
.Ltmp1920:
	.loc	1 506 4 is_stmt 1
	tst	x19, #0xff0000000000
.Ltmp1921:
	.loc	1 506 4 is_stmt 0
	b.ne	.LBB16_252
	b	.LBB16_260
.Ltmp1922:
.LBB16_307:
	.loc	1 506 4
	orr	x5, x5, x27
.Ltmp1923:
	.loc	1 507 4 is_stmt 1
	tst	x19, #0xff000000000000
.Ltmp1924:
	.loc	1 507 4 is_stmt 0
	b.ne	.LBB16_253
	b	.LBB16_262
.Ltmp1925:
.LBB16_308:
	.loc	1 507 4
	orr	x5, x5, x27
.Ltmp1926:
	.loc	1 508 4 is_stmt 1
	lsr	x19, x19, #56
.Ltmp1927:
	cbnz	x19, .LBB16_240
	b	.LBB16_264
.Ltmp1928:
.LBB16_309:
	.loc	1 0 4 is_stmt 0
	mov	w19, #1
.Ltmp1929:
	.loc	1 2463 5 is_stmt 1
	mov	x0, x20
	mov	w1, #1
	.loc	1 2462 27
	str	w19, [x20, #268]
	.loc	1 2463 5
	bl	ebc_power_set
.Ltmp1930:
	.loc	1 2464 5
	mov	x0, x20
	mov	w1, #1
	bl	ebc_lut_update
.Ltmp1931:
	.loc	1 2468 5
	ldr	w9, [x20, #792]
.Ltmp1932:
	.loc	1 2466 54
	ldr	w8, [x20, #320]
.Ltmp1933:
	.loc	1 2468 5
	cmp	w9, #1
.Ltmp1934:
	.loc	1 2467 30
	strh	w8, [x20, #272]
.Ltmp1935:
	.loc	1 2468 5
	b.ge	.LBB16_323
.Ltmp1936:
.LBB16_310:
	.loc	1 2469 5
	mov	x0, x20
	bl	ebc_frame_start
.Ltmp1937:
	.loc	1 2473 18
	ldr	x0, [x20, #448]
.Ltmp1938:
	.loc	1 2473 8 is_stmt 0
	cbnz	x0, .LBB16_233
	b	.LBB16_234
.Ltmp1939:
.LBB16_311:
	.loc	1 2528 6 is_stmt 1
	adrp	x1, .L.str.68
	ldr	x0, [x20, #312]
	add	x1, x1, :lo12:.L.str.68
	bl	_dev_info
.Ltmp1940:
	.loc	1 0 6 is_stmt 0
	b	.LBB16_180
.Ltmp1941:
.LBB16_312:
	add	x1, sp, #24
	mov	x0, x26
	bl	finish_wait
.Ltmp1942:
.LBB16_313:
	ldr	w8, [x20, #792]
	cmp	w8, #1
	b.ge	.LBB16_328
.Ltmp1943:
.LBB16_314:
	ldr	x8, [x20, #440]
	ldr	x0, [x20, #360]
	ldrsw	x2, [x20, #244]
	ldr	x1, [x8, #16]
	bl	memcpy
.Ltmp1944:
.LBB16_315:
	.loc	1 2565 24 is_stmt 1
	ldr	w8, [x20, #268]
.Ltmp1945:
	.loc	1 2564 24
	mov	w9, #3
	str	w9, [x20, #464]
	.loc	1 2565 9
	cbnz	w8, .LBB16_176
.Ltmp1946:
	.loc	1 2567 6
	mov	x0, x20
	mov	w1, #1
	.loc	1 2566 28
	str	w19, [x20, #268]
	.loc	1 2567 6
	bl	ebc_power_set
.Ltmp1947:
	.loc	1 2568 31
	ldr	w1, [x25, #40]
	.loc	1 2568 6 is_stmt 0
	mov	x0, x20
	bl	ebc_lut_update
.Ltmp1948:
	.loc	1 2572 6 is_stmt 1
	ldr	w9, [x20, #792]
.Ltmp1949:
	.loc	1 2570 55
	ldr	w8, [x20, #320]
.Ltmp1950:
	.loc	1 2572 6
	cmp	w9, #1
.Ltmp1951:
	.loc	1 2571 31
	strh	w8, [x20, #272]
.Ltmp1952:
	.loc	1 2572 6
	b.ge	.LBB16_324
.Ltmp1953:
.LBB16_317:
	.loc	1 2573 6
	mov	x0, x20
	bl	ebc_frame_start
.Ltmp1954:
	.loc	1 0 6 is_stmt 0
	b	.LBB16_176
.Ltmp1955:
.LBB16_318:
	.loc	1 2716 5 is_stmt 1
	add	x1, sp, #24
	mov	x0, x26
	bl	finish_wait
.Ltmp1956:
.LBB16_319:
	.loc	1 2717 33
	str	wzr, [x20, #308]
	b	.LBB16_3
.Ltmp1957:
.LBB16_320:
	.loc	1 2489 6
	adrp	x1, .L.str.64
	ldr	x0, [x20, #312]
	add	x1, x1, :lo12:.L.str.64
	bl	_dev_info
.Ltmp1958:
	.loc	1 2490 6
	ldr	w8, [x20, #268]
.Ltmp1959:
	.loc	1 2490 6 is_stmt 0
	cbnz	w8, .LBB16_29
	b	.LBB16_141
.Ltmp1960:
.LBB16_321:
	.loc	1 2491 6 is_stmt 1
	adrp	x1, .L.str.65
	ldr	x0, [x20, #312]
	add	x1, x1, :lo12:.L.str.65
	bl	_dev_info
.Ltmp1961:
	.loc	1 0 6 is_stmt 0
	b	.LBB16_142
.Ltmp1962:
.LBB16_322:
	.loc	1 2608 7 is_stmt 1
	adrp	x1, .L.str.71
	ldr	x0, [x20, #312]
	add	x1, x1, :lo12:.L.str.71
	bl	_dev_info
.Ltmp1963:
	.loc	1 0 7 is_stmt 0
	b	.LBB16_60
.Ltmp1964:
.LBB16_323:
	.loc	1 2468 5 is_stmt 1
	adrp	x1, .L.str.66
	ldr	x0, [x20, #312]
	and	w2, w8, #0xff
	ubfx	w3, w8, #8, #8
	add	x1, x1, :lo12:.L.str.66
	bl	_dev_info
.Ltmp1965:
	.loc	1 0 5 is_stmt 0
	b	.LBB16_310
.Ltmp1966:
.LBB16_324:
	.loc	1 2572 6 is_stmt 1
	adrp	x1, .L.str.69
	ldr	x0, [x20, #312]
	and	w2, w8, #0xff
	add	x1, x1, :lo12:.L.str.69
	bl	_dev_info
.Ltmp1967:
	.loc	1 0 6 is_stmt 0
	b	.LBB16_317
.Ltmp1968:
.LBB16_325:
	.loc	1 2676 5 is_stmt 1
	adrp	x1, .L.str.76
	ldr	x0, [x20, #312]
	add	x1, x1, :lo12:.L.str.76
	bl	_dev_err
.Ltmp1969:
	.loc	1 0 5 is_stmt 0
	b	.LBB16_15
.Ltmp1970:
.LBB16_326:
	.loc	1 2449 5 is_stmt 1
	adrp	x1, .L.str.64
	ldr	x0, [x20, #312]
	add	x1, x1, :lo12:.L.str.64
	bl	_dev_info
.Ltmp1971:
	.loc	1 2450 5
	ldr	w8, [x20, #268]
.Ltmp1972:
	.loc	1 2450 5 is_stmt 0
	cbnz	w8, .LBB16_192
	b	.LBB16_229
.Ltmp1973:
.LBB16_327:
	.loc	1 2451 5 is_stmt 1
	adrp	x1, .L.str.65
	ldr	x0, [x20, #312]
	add	x1, x1, :lo12:.L.str.65
	bl	_dev_info
.Ltmp1974:
	.loc	1 0 5 is_stmt 0
	b	.LBB16_230
.Ltmp1975:
.LBB16_328:
	adrp	x1, .L.str.65
	ldr	x0, [x20, #312]
	add	x1, x1, :lo12:.L.str.65
	bl	_dev_info
.Ltmp1976:
	b	.LBB16_314
.Ltmp1977:
.LBB16_329:
	.loc	1 2548 6 is_stmt 1
	adrp	x1, .L.str.64
	ldr	x0, [x20, #312]
	add	x1, x1, :lo12:.L.str.64
	bl	_dev_info
.Ltmp1978:
	.loc	1 2549 6
	ldr	w8, [x20, #268]
.Ltmp1979:
	.loc	1 2549 6 is_stmt 0
	cbnz	w8, .LBB16_200
	b	.LBB16_313
.Ltmp1980:
.LBB16_330:
	.loc	1 2554 6 is_stmt 1
	adrp	x1, .L.str.64
	ldr	x0, [x20, #312]
	add	x1, x1, :lo12:.L.str.64
	bl	_dev_info
.Ltmp1981:
	.loc	1 2555 6
	ldr	w8, [x20, #268]
.Ltmp1982:
	.loc	1 2555 6 is_stmt 0
	cbnz	w8, .LBB16_215
	b	.LBB16_313
.Ltmp1983:
.Lfunc_end16:
	.size	ebc_thread, .Lfunc_end16-ebc_thread
	.cfi_endproc

	.p2align	2
	.type	get_overlay_image2,@function
get_overlay_image2:
.Lfunc_begin17:
	.loc	1 706 0 is_stmt 1
	.cfi_startproc
	sub	sp, sp, #128
	str	x30, [x18], #8
	.cfi_escape 0x16, 0x12, 0x02, 0x82, 0x78
	stp	x29, x30, [sp, #32]
	add	x29, sp, #32
	stp	x28, x27, [sp, #48]
	stp	x26, x25, [sp, #64]
	stp	x24, x23, [sp, #80]
	stp	x22, x21, [sp, #96]
	stp	x20, x19, [sp, #112]
	.cfi_def_cfa w29, 96
	.cfi_offset w19, -8
	.cfi_offset w20, -16
	.cfi_offset w21, -24
	.cfi_offset w22, -32
	.cfi_offset w23, -40
	.cfi_offset w24, -48
	.cfi_offset w25, -56
	.cfi_offset w26, -64
	.cfi_offset w27, -72
	.cfi_offset w28, -80
	.cfi_offset w30, -88
	.cfi_offset w29, -96
.Ltmp1984:
	.loc	1 707 29 prologue_end
	adrp	x8, global_ebc
	mov	x19, x5
.Ltmp1985:
	.loc	1 0 29 is_stmt 0
	mov	x22, x4
.Ltmp1986:
	mov	x21, x3
.Ltmp1987:
	mov	x23, x2
.Ltmp1988:
	mov	x24, x1
.Ltmp1989:
	.loc	1 707 29
	ldr	x8, [x8, :lo12:global_ebc]
.Ltmp1990:
	.loc	1 716 6 is_stmt 1
	cmp	w6, #3
	stur	x0, [x29, #-8]
.Ltmp1991:
	.loc	1 713 17
	ldp	w25, w10, [x8, #116]
.Ltmp1992:
	.loc	1 713 23 is_stmt 0
	lsr	w20, w25, #3
.Ltmp1993:
	.loc	1 716 6 is_stmt 1
	b.eq	.LBB17_3
.Ltmp1994:
	.loc	1 0 6 is_stmt 0
	add	x8, x19, #60
.Ltmp1995:
	.loc	1 716 6
	cmp	w6, #2
	str	x8, [sp, #8]
.Ltmp1996:
	b.ne	.LBB17_4
.Ltmp1997:
	.loc	1 718 19 is_stmt 1
	cmp	w10, #0
	mov	w27, wzr
	cinc	w8, w10, lt
	asr	w10, w8, #1
.Ltmp1998:
	.loc	1 0 19 is_stmt 0
	b	.LBB17_5
.Ltmp1999:
.LBB17_3:
	.loc	1 720 14 is_stmt 1
	cmp	w10, #0
	cinc	w8, w10, lt
	asr	w27, w8, #1
.Ltmp2000:
	.loc	1 721 19
	mul	w8, w27, w20
	.loc	1 723 20
	mul	w9, w27, w25
	.loc	1 721 14
	sbfiz	x8, x8, #3, #32
	.loc	1 723 15
	add	x21, x21, x9
.Ltmp2001:
	.loc	1 721 14
	add	x24, x24, x8
.Ltmp2002:
	.loc	1 722 14
	add	x23, x23, x8
.Ltmp2003:
	.loc	1 724 12
	add	x22, x22, x9
.Ltmp2004:
	.loc	1 725 35
	add	x8, x19, #64
.Ltmp2005:
	.loc	1 0 35 is_stmt 0
	str	x8, [sp, #8]
.Ltmp2006:
	b	.LBB17_5
.Ltmp2007:
.LBB17_4:
	mov	w27, wzr
.Ltmp2008:
.LBB17_5:
	.loc	1 730 27 is_stmt 1
	lsr	w26, w25, #2
.Ltmp2009:
	.loc	1 731 60
	subs	w8, w10, w27
	ldur	x9, [x29, #-8]
	.loc	1 731 2 is_stmt 0
	mov	w1, wzr
.Ltmp2010:
	.loc	1 731 23
	mul	w28, w27, w26
	stur	w10, [x29, #-12]
	.loc	1 731 50
	mul	w8, w8, w26
	.loc	1 731 18
	add	x0, x9, w28, sxtw
	.loc	1 731 40
	sxtw	x2, w8
	.loc	1 731 2
	bl	memset
.Ltmp2011:
	.loc	1 0 2
	ldur	w11, [x29, #-12]
	mov	w2, wzr
	.loc	1 731 60
	cmp	w11, w27
.Ltmp2012:
	.loc	1 733 2 is_stmt 1
	b.le	.LBB17_59
.Ltmp2013:
	cmp	w20, #1
	mov	w2, wzr
	csinc	w9, w20, wzr, hi
	lsl	w8, w26, #1
	lsl	x9, x9, #3
	mov	w10, #56
	b	.LBB17_10
.Ltmp2014:
.LBB17_7:
	.loc	1 733 23 is_stmt 0
	add	x12, x24, x11
	add	x13, x23, x11
	add	x24, x12, x17
	add	x12, x22, x11
	add	x11, x21, x11
	add	x23, x13, x17
	add	x22, x12, x17
	add	x21, x11, x17
.Ltmp2015:
.LBB17_8:
	.loc	1 0 23
	ldur	w11, [x29, #-12]
.Ltmp2016:
.LBB17_9:
	.loc	1 733 23
	add	w27, w27, #2
.Ltmp2017:
	.loc	1 733 2
	add	w28, w28, w8
	cmp	w27, w11
	b.ge	.LBB17_59
.Ltmp2018:
.LBB17_10:
	.loc	1 735 3 is_stmt 1
	cmp	w25, #8
	b.lo	.LBB17_9
.Ltmp2019:
	.loc	1 0 3 is_stmt 0
	ldur	x12, [x29, #-8]
	mov	x11, xzr
	add	x12, x12, w28, sxtw
	mov	x13, x12
	b	.LBB17_15
.Ltmp2020:
.LBB17_12:
	.loc	1 754 18 is_stmt 1
	str	x14, [x23, x11]
.Ltmp2021:
.LBB17_13:
	.loc	1 0 18 is_stmt 0
	mov	w2, #1
	.loc	1 755 29 is_stmt 1
	str	w16, [x13]
.Ltmp2022:
.LBB17_14:
	.loc	1 735 17
	add	x13, x13, #4
	add	x11, x11, #8
.Ltmp2023:
	.loc	1 735 3 is_stmt 0
	cmp	x9, x11
	b.eq	.LBB17_34
.Ltmp2024:
.LBB17_15:
	.loc	1 736 19 is_stmt 1
	ldr	x15, [x24, x11]
.Ltmp2025:
	.loc	1 737 19
	ldr	x14, [x23, x11]
.Ltmp2026:
	.loc	1 739 8
	cmp	x15, x14
	b.eq	.LBB17_14
.Ltmp2027:
	.loc	1 742 28
	eor	x0, x14, x15
.Ltmp2028:
	.loc	1 745 5
	tst	x0, #0xff
.Ltmp2029:
	.loc	1 745 5 is_stmt 0
	b.eq	.LBB17_18
.Ltmp2030:
	.loc	1 745 5
	ldrb	w16, [x22, x11]
.Ltmp2031:
	lsl	w2, w14, #2
	ldrb	w1, [x21, x11]
.Ltmp2032:
	and	x2, x2, #0x3e0
	bfxil	x2, x15, #3, #5
	mov	x3, x14
	bfxil	x3, x15, #0, #8
	add	x17, x19, x16, lsl #3
	cmp	w16, #0
	cinc	x16, x10, ne
.Ltmp2033:
	add	w4, w1, #1
.Ltmp2034:
	ldr	x17, [x17, #120]
.Ltmp2035:
	.loc	1 745 5
	ldrb	w16, [x19, x16]
.Ltmp2036:
	.loc	1 745 5
	add	x17, x17, x1, lsl #10
.Ltmp2037:
	.loc	1 745 5
	cmp	w16, w4, uxtb
.Ltmp2038:
	.loc	1 745 5
	ldrb	w16, [x17, x2]
.Ltmp2039:
	.loc	1 745 5
	cset	w17, eq
.Ltmp2040:
	.loc	1 745 5
	csel	x14, x3, x14, eq
.Ltmp2041:
	csinc	w1, wzr, w1, eq
.Ltmp2042:
	strb	w1, [x21, x11]
	b	.LBB17_19
.Ltmp2043:
.LBB17_18:
	.loc	1 0 5
	mov	w16, wzr
	mov	w17, wzr
.Ltmp2044:
.LBB17_19:
	.loc	1 746 5 is_stmt 1
	add	x1, x21, x11
	tst	x0, #0xff00
.Ltmp2045:
	.loc	1 746 5 is_stmt 0
	b.eq	.LBB17_21
.Ltmp2046:
	.loc	1 746 5
	add	x2, x22, x11
	ldrb	w4, [x1, #1]
.Ltmp2047:
	lsr	x5, x14, #6
	lsr	x6, x15, #8
	and	x5, x5, #0x3e0
	ldrb	w2, [x2, #1]
.Ltmp2048:
	bfxil	x5, x15, #11, #5
	add	x3, x19, x2, lsl #3
	cmp	w2, #0
	cinc	x2, x10, ne
.Ltmp2049:
	ldr	x3, [x3, #120]
.Ltmp2050:
	.loc	1 746 5
	ldrb	w2, [x19, x2]
.Ltmp2051:
	.loc	1 746 5
	add	x3, x3, x4, lsl #10
.Ltmp2052:
	ldrb	w3, [x3, x5]
.Ltmp2053:
	add	w5, w4, #1
.Ltmp2054:
	.loc	1 746 5
	cmp	w2, w5, uxtb
.Ltmp2055:
	.loc	1 746 5
	mov	x2, x14
.Ltmp2056:
	bfi	x2, x6, #8, #8
.Ltmp2057:
	.loc	1 746 5
	cset	w5, eq
.Ltmp2058:
	.loc	1 746 5
	csinc	w4, wzr, w4, eq
	orr	w17, w5, w17
	orr	w16, w16, w3, lsl #4
.Ltmp2059:
	csel	x14, x2, x14, eq
.Ltmp2060:
	strb	w4, [x1, #1]
.Ltmp2061:
.LBB17_21:
	.loc	1 747 5 is_stmt 1
	tst	x0, #0xff0000
.Ltmp2062:
	.loc	1 747 5 is_stmt 0
	b.eq	.LBB17_23
.Ltmp2063:
	.loc	1 747 5
	add	x2, x22, x11
	ldrb	w4, [x1, #2]
.Ltmp2064:
	lsr	x5, x14, #14
	lsr	x6, x15, #16
	and	x5, x5, #0x3e0
	ldrb	w2, [x2, #2]
.Ltmp2065:
	bfxil	x5, x15, #19, #5
	add	x3, x19, x2, lsl #3
	cmp	w2, #0
	cinc	x2, x10, ne
.Ltmp2066:
	ldr	x3, [x3, #120]
.Ltmp2067:
	.loc	1 747 5
	ldrb	w2, [x19, x2]
.Ltmp2068:
	.loc	1 747 5
	add	x3, x3, x4, lsl #10
.Ltmp2069:
	ldrb	w3, [x3, x5]
.Ltmp2070:
	add	w5, w4, #1
.Ltmp2071:
	.loc	1 747 5
	cmp	w2, w5, uxtb
.Ltmp2072:
	.loc	1 747 5
	mov	x2, x14
.Ltmp2073:
	bfi	x2, x6, #16, #8
.Ltmp2074:
	.loc	1 747 5
	cset	w5, eq
.Ltmp2075:
	.loc	1 747 5
	csinc	w4, wzr, w4, eq
	orr	w17, w5, w17
	orr	w16, w16, w3, lsl #8
.Ltmp2076:
	csel	x14, x2, x14, eq
.Ltmp2077:
	strb	w4, [x1, #2]
.Ltmp2078:
.LBB17_23:
	.loc	1 748 5 is_stmt 1
	add	x1, x21, x11
	tst	x0, #0xff000000
.Ltmp2079:
	.loc	1 748 5 is_stmt 0
	b.eq	.LBB17_25
.Ltmp2080:
	.loc	1 748 5
	add	x2, x22, x11
	ldrb	w4, [x1, #3]
.Ltmp2081:
	lsr	x5, x14, #22
	lsr	x6, x15, #24
	and	x5, x5, #0x3e0
	ldrb	w2, [x2, #3]
.Ltmp2082:
	bfxil	x5, x15, #27, #5
	add	x3, x19, x2, lsl #3
	cmp	w2, #0
	cinc	x2, x10, ne
.Ltmp2083:
	ldr	x3, [x3, #120]
.Ltmp2084:
	.loc	1 748 5
	ldrb	w2, [x19, x2]
.Ltmp2085:
	.loc	1 748 5
	add	x3, x3, x4, lsl #10
.Ltmp2086:
	ldrb	w3, [x3, x5]
.Ltmp2087:
	add	w5, w4, #1
.Ltmp2088:
	.loc	1 748 5
	cmp	w2, w5, uxtb
.Ltmp2089:
	.loc	1 748 5
	mov	x2, x14
.Ltmp2090:
	bfi	x2, x6, #24, #8
.Ltmp2091:
	.loc	1 748 5
	cset	w5, eq
.Ltmp2092:
	.loc	1 748 5
	csinc	w4, wzr, w4, eq
	orr	w17, w5, w17
	orr	w16, w16, w3, lsl #12
.Ltmp2093:
	csel	x14, x2, x14, eq
.Ltmp2094:
	strb	w4, [x1, #3]
.Ltmp2095:
.LBB17_25:
	.loc	1 749 5 is_stmt 1
	tst	x0, #0xff00000000
.Ltmp2096:
	.loc	1 749 5 is_stmt 0
	b.eq	.LBB17_27
.Ltmp2097:
	.loc	1 749 5
	add	x2, x22, x11
	ldrb	w4, [x1, #4]
.Ltmp2098:
	lsr	x5, x14, #30
	lsr	x6, x15, #32
	and	x5, x5, #0x3e0
	ldrb	w2, [x2, #4]
.Ltmp2099:
	bfxil	x5, x15, #35, #5
	add	x3, x19, x2, lsl #3
	cmp	w2, #0
	cinc	x2, x10, ne
.Ltmp2100:
	ldr	x3, [x3, #120]
.Ltmp2101:
	.loc	1 749 5
	ldrb	w2, [x19, x2]
.Ltmp2102:
	.loc	1 749 5
	add	x3, x3, x4, lsl #10
.Ltmp2103:
	ldrb	w3, [x3, x5]
.Ltmp2104:
	add	w5, w4, #1
.Ltmp2105:
	.loc	1 749 5
	cmp	w2, w5, uxtb
.Ltmp2106:
	.loc	1 749 5
	mov	x2, x14
.Ltmp2107:
	bfi	x2, x6, #32, #8
.Ltmp2108:
	.loc	1 749 5
	cset	w5, eq
.Ltmp2109:
	.loc	1 749 5
	csinc	w4, wzr, w4, eq
	orr	w17, w5, w17
	orr	w16, w16, w3, lsl #16
.Ltmp2110:
	csel	x14, x2, x14, eq
.Ltmp2111:
	strb	w4, [x1, #4]
.Ltmp2112:
.LBB17_27:
	.loc	1 750 5 is_stmt 1
	add	x1, x21, x11
	tst	x0, #0xff0000000000
.Ltmp2113:
	.loc	1 750 5 is_stmt 0
	b.eq	.LBB17_29
.Ltmp2114:
	.loc	1 750 5
	add	x2, x22, x11
	ldrb	w4, [x1, #5]
.Ltmp2115:
	lsr	x5, x14, #38
	lsr	x6, x15, #40
	and	x5, x5, #0x3e0
	ldrb	w2, [x2, #5]
.Ltmp2116:
	bfxil	x5, x15, #43, #5
	add	x3, x19, x2, lsl #3
	cmp	w2, #0
	cinc	x2, x10, ne
.Ltmp2117:
	ldr	x3, [x3, #120]
.Ltmp2118:
	.loc	1 750 5
	ldrb	w2, [x19, x2]
.Ltmp2119:
	.loc	1 750 5
	add	x3, x3, x4, lsl #10
.Ltmp2120:
	ldrb	w3, [x3, x5]
.Ltmp2121:
	add	w5, w4, #1
.Ltmp2122:
	.loc	1 750 5
	cmp	w2, w5, uxtb
.Ltmp2123:
	.loc	1 750 5
	mov	x2, x14
.Ltmp2124:
	bfi	x2, x6, #40, #8
.Ltmp2125:
	.loc	1 750 5
	cset	w5, eq
.Ltmp2126:
	.loc	1 750 5
	csinc	w4, wzr, w4, eq
	orr	w17, w5, w17
	orr	w16, w16, w3, lsl #20
.Ltmp2127:
	csel	x14, x2, x14, eq
.Ltmp2128:
	strb	w4, [x1, #5]
.Ltmp2129:
.LBB17_29:
	.loc	1 751 5 is_stmt 1
	tst	x0, #0xff000000000000
.Ltmp2130:
	.loc	1 751 5 is_stmt 0
	b.eq	.LBB17_31
.Ltmp2131:
	.loc	1 751 5
	add	x2, x22, x11
	ldrb	w4, [x1, #6]
.Ltmp2132:
	lsr	x5, x14, #46
	lsr	x6, x15, #48
	and	x5, x5, #0x3e0
	ldrb	w2, [x2, #6]
.Ltmp2133:
	bfxil	x5, x15, #51, #5
	add	x3, x19, x2, lsl #3
	cmp	w2, #0
	cinc	x2, x10, ne
.Ltmp2134:
	ldr	x3, [x3, #120]
.Ltmp2135:
	.loc	1 751 5
	ldrb	w2, [x19, x2]
.Ltmp2136:
	.loc	1 751 5
	add	x3, x3, x4, lsl #10
.Ltmp2137:
	ldrb	w3, [x3, x5]
.Ltmp2138:
	add	w5, w4, #1
.Ltmp2139:
	.loc	1 751 5
	cmp	w2, w5, uxtb
.Ltmp2140:
	.loc	1 751 5
	mov	x2, x14
.Ltmp2141:
	bfi	x2, x6, #48, #8
.Ltmp2142:
	.loc	1 751 5
	cset	w5, eq
.Ltmp2143:
	.loc	1 751 5
	csinc	w4, wzr, w4, eq
	orr	w17, w5, w17
	orr	w16, w16, w3, lsl #24
.Ltmp2144:
	csel	x14, x2, x14, eq
.Ltmp2145:
	strb	w4, [x1, #6]
.Ltmp2146:
.LBB17_31:
	.loc	1 752 5 is_stmt 1
	lsr	x0, x0, #56
.Ltmp2147:
	cbnz	x0, .LBB17_33
.Ltmp2148:
	.loc	1 753 9
	cbnz	w17, .LBB17_12
	b	.LBB17_13
.Ltmp2149:
.LBB17_33:
	.loc	1 752 5
	add	x0, x22, x11
.Ltmp2150:
	.loc	1 0 0 is_stmt 0
	add	x1, x21, x11
.Ltmp2151:
	.loc	1 752 5
	lsr	x4, x14, #54
	and	x4, x4, #0x3e0
	ldrb	w0, [x0, #7]
.Ltmp2152:
	bfxil	x4, x15, #59, #5
	bfxil	x15, x14, #0, #56
.Ltmp2153:
	add	x2, x19, x0, lsl #3
	cmp	w0, #0
	ldrb	w0, [x1, #7]
.Ltmp2154:
	cinc	x3, x10, ne
	ldr	x2, [x2, #120]
.Ltmp2155:
	.loc	1 752 5
	ldrb	w3, [x19, x3]
.Ltmp2156:
	.loc	1 752 5
	add	x2, x2, x0, lsl #10
.Ltmp2157:
	ldrb	w2, [x2, x4]
.Ltmp2158:
	add	w4, w0, #1
.Ltmp2159:
	.loc	1 752 5
	cmp	w3, w4, uxtb
	cset	w3, eq
.Ltmp2160:
	.loc	1 752 5
	csinc	w0, wzr, w0, eq
	orr	w17, w3, w17
	csel	x14, x15, x14, eq
.Ltmp2161:
	orr	w16, w16, w2, lsl #28
.Ltmp2162:
	strb	w0, [x1, #7]
.Ltmp2163:
	.loc	1 753 9 is_stmt 1
	tbnz	w17, #0, .LBB17_12
	b	.LBB17_13
.Ltmp2164:
.LBB17_34:
	.loc	1 765 3
	add	x13, x24, x11
	add	x14, x23, x11
	add	x15, x22, x11
	add	x16, x21, x11
	cmp	w25, #8
	b.hs	.LBB17_36
.Ltmp2165:
	.loc	1 0 3 is_stmt 0
	mov	x22, x15
	mov	x21, x16
	mov	x23, x14
	mov	x24, x13
	b	.LBB17_8
.Ltmp2166:
.LBB17_36:
	mov	x17, xzr
	b	.LBB17_40
.Ltmp2167:
.LBB17_37:
	.loc	1 784 18 is_stmt 1
	str	x0, [x14, x17]
.Ltmp2168:
.LBB17_38:
	.loc	1 785 29
	ldr	w0, [x12]
.Ltmp2169:
	orr	w0, w0, w2
	mov	w2, #1
.Ltmp2170:
	str	w0, [x12]
.Ltmp2171:
.LBB17_39:
	.loc	1 765 17
	add	x12, x12, #4
	add	x17, x17, #8
.Ltmp2172:
	.loc	1 765 3 is_stmt 0
	cmp	x9, x17
	b.eq	.LBB17_7
.Ltmp2173:
.LBB17_40:
	.loc	1 766 19 is_stmt 1
	ldr	x1, [x13, x17]
.Ltmp2174:
	.loc	1 767 19
	ldr	x0, [x14, x17]
.Ltmp2175:
	.loc	1 769 8
	cmp	x1, x0
	b.eq	.LBB17_39
.Ltmp2176:
	.loc	1 772 28
	eor	x4, x0, x1
.Ltmp2177:
	.loc	1 775 5
	tst	x4, #0xff
.Ltmp2178:
	.loc	1 775 5 is_stmt 0
	b.eq	.LBB17_43
.Ltmp2179:
	.loc	1 775 5
	ldrb	w2, [x15, x17]
.Ltmp2180:
	lsl	w6, w0, #2
	ldrb	w5, [x16, x17]
.Ltmp2181:
	mov	x7, x0
	bfxil	x7, x1, #0, #8
	add	x3, x19, x2, lsl #3
	cmp	w2, #0
	ldr	x2, [x3, #120]
.Ltmp2182:
	and	x3, x6, #0x3e0
	cinc	x6, x10, ne
	bfxil	x3, x1, #3, #5
	add	x2, x2, x5, lsl #10
.Ltmp2183:
	.loc	1 775 5
	ldrb	w6, [x19, x6]
.Ltmp2184:
	.loc	1 775 5
	ldrb	w2, [x2, x3]
.Ltmp2185:
	add	w3, w5, #1
.Ltmp2186:
	.loc	1 775 5
	cmp	w6, w3, uxtb
	cset	w3, eq
.Ltmp2187:
	.loc	1 775 5
	lsl	w2, w2, #2
.Ltmp2188:
	csel	x0, x7, x0, eq
.Ltmp2189:
	csinc	w5, wzr, w5, eq
.Ltmp2190:
	strb	w5, [x16, x17]
	b	.LBB17_44
.Ltmp2191:
.LBB17_43:
	.loc	1 0 5
	mov	w3, wzr
	mov	w2, wzr
.Ltmp2192:
.LBB17_44:
	.loc	1 776 5 is_stmt 1
	add	x5, x16, x17
	tst	x4, #0xff00
.Ltmp2193:
	.loc	1 776 5 is_stmt 0
	b.eq	.LBB17_46
.Ltmp2194:
	.loc	1 776 5
	add	x6, x15, x17
	ldrb	w20, [x5, #1]
.Ltmp2195:
	lsr	x26, x0, #6
	lsr	x30, x1, #8
	and	x26, x26, #0x3e0
	ldrb	w6, [x6, #1]
.Ltmp2196:
	bfxil	x26, x1, #11, #5
	add	x7, x19, x6, lsl #3
	cmp	w6, #0
	cinc	x6, x10, ne
.Ltmp2197:
	ldr	x7, [x7, #120]
.Ltmp2198:
	.loc	1 776 5
	ldrb	w6, [x19, x6]
.Ltmp2199:
	.loc	1 776 5
	add	x7, x7, x20, lsl #10
.Ltmp2200:
	ldrb	w7, [x7, x26]
.Ltmp2201:
	add	w26, w20, #1
.Ltmp2202:
	.loc	1 776 5
	cmp	w6, w26, uxtb
.Ltmp2203:
	.loc	1 776 5
	mov	x6, x0
.Ltmp2204:
	bfi	x6, x30, #8, #8
.Ltmp2205:
	.loc	1 776 5
	cset	w26, eq
.Ltmp2206:
	.loc	1 776 5
	csinc	w20, wzr, w20, eq
.Ltmp2207:
	csel	x0, x6, x0, eq
	orr	w2, w2, w7, lsl #6
.Ltmp2208:
	orr	w3, w26, w3
	strb	w20, [x5, #1]
.Ltmp2209:
.LBB17_46:
	.loc	1 777 5 is_stmt 1
	tst	x4, #0xff0000
.Ltmp2210:
	.loc	1 777 5 is_stmt 0
	b.eq	.LBB17_48
.Ltmp2211:
	.loc	1 777 5
	add	x6, x15, x17
	ldrb	w20, [x5, #2]
.Ltmp2212:
	lsr	x26, x0, #14
	lsr	x30, x1, #16
	and	x26, x26, #0x3e0
	ldrb	w6, [x6, #2]
.Ltmp2213:
	bfxil	x26, x1, #19, #5
	add	x7, x19, x6, lsl #3
	cmp	w6, #0
	cinc	x6, x10, ne
.Ltmp2214:
	ldr	x7, [x7, #120]
.Ltmp2215:
	.loc	1 777 5
	ldrb	w6, [x19, x6]
.Ltmp2216:
	.loc	1 777 5
	add	x7, x7, x20, lsl #10
.Ltmp2217:
	ldrb	w7, [x7, x26]
.Ltmp2218:
	add	w26, w20, #1
.Ltmp2219:
	.loc	1 777 5
	cmp	w6, w26, uxtb
.Ltmp2220:
	.loc	1 777 5
	mov	x6, x0
.Ltmp2221:
	bfi	x6, x30, #16, #8
.Ltmp2222:
	.loc	1 777 5
	cset	w26, eq
.Ltmp2223:
	.loc	1 777 5
	csinc	w20, wzr, w20, eq
.Ltmp2224:
	csel	x0, x6, x0, eq
	orr	w2, w2, w7, lsl #10
.Ltmp2225:
	orr	w3, w26, w3
	strb	w20, [x5, #2]
.Ltmp2226:
.LBB17_48:
	.loc	1 778 5 is_stmt 1
	add	x5, x16, x17
	tst	x4, #0xff000000
.Ltmp2227:
	.loc	1 778 5 is_stmt 0
	b.eq	.LBB17_50
.Ltmp2228:
	.loc	1 778 5
	add	x6, x15, x17
	ldrb	w20, [x5, #3]
.Ltmp2229:
	lsr	x26, x0, #22
	lsr	x30, x1, #24
	and	x26, x26, #0x3e0
	ldrb	w6, [x6, #3]
.Ltmp2230:
	bfxil	x26, x1, #27, #5
	add	x7, x19, x6, lsl #3
	cmp	w6, #0
	cinc	x6, x10, ne
.Ltmp2231:
	ldr	x7, [x7, #120]
.Ltmp2232:
	.loc	1 778 5
	ldrb	w6, [x19, x6]
.Ltmp2233:
	.loc	1 778 5
	add	x7, x7, x20, lsl #10
.Ltmp2234:
	ldrb	w7, [x7, x26]
.Ltmp2235:
	add	w26, w20, #1
.Ltmp2236:
	.loc	1 778 5
	cmp	w6, w26, uxtb
.Ltmp2237:
	.loc	1 778 5
	mov	x6, x0
.Ltmp2238:
	bfi	x6, x30, #24, #8
.Ltmp2239:
	.loc	1 778 5
	cset	w26, eq
.Ltmp2240:
	.loc	1 778 5
	csinc	w20, wzr, w20, eq
.Ltmp2241:
	csel	x0, x6, x0, eq
	orr	w2, w2, w7, lsl #14
.Ltmp2242:
	orr	w3, w26, w3
	strb	w20, [x5, #3]
.Ltmp2243:
.LBB17_50:
	.loc	1 779 5 is_stmt 1
	tst	x4, #0xff00000000
.Ltmp2244:
	.loc	1 779 5 is_stmt 0
	b.eq	.LBB17_52
.Ltmp2245:
	.loc	1 779 5
	add	x6, x15, x17
	ldrb	w20, [x5, #4]
.Ltmp2246:
	lsr	x26, x0, #30
	lsr	x30, x1, #32
	and	x26, x26, #0x3e0
	ldrb	w6, [x6, #4]
.Ltmp2247:
	bfxil	x26, x1, #35, #5
	add	x7, x19, x6, lsl #3
	cmp	w6, #0
	cinc	x6, x10, ne
.Ltmp2248:
	ldr	x7, [x7, #120]
.Ltmp2249:
	.loc	1 779 5
	ldrb	w6, [x19, x6]
.Ltmp2250:
	.loc	1 779 5
	add	x7, x7, x20, lsl #10
.Ltmp2251:
	ldrb	w7, [x7, x26]
.Ltmp2252:
	add	w26, w20, #1
.Ltmp2253:
	.loc	1 779 5
	cmp	w6, w26, uxtb
.Ltmp2254:
	.loc	1 779 5
	mov	x6, x0
.Ltmp2255:
	bfi	x6, x30, #32, #8
.Ltmp2256:
	.loc	1 779 5
	cset	w26, eq
.Ltmp2257:
	.loc	1 779 5
	csinc	w20, wzr, w20, eq
.Ltmp2258:
	csel	x0, x6, x0, eq
	orr	w2, w2, w7, lsl #18
.Ltmp2259:
	orr	w3, w26, w3
	strb	w20, [x5, #4]
.Ltmp2260:
.LBB17_52:
	.loc	1 780 5 is_stmt 1
	add	x5, x16, x17
	tst	x4, #0xff0000000000
.Ltmp2261:
	.loc	1 780 5 is_stmt 0
	b.eq	.LBB17_54
.Ltmp2262:
	.loc	1 780 5
	add	x6, x15, x17
	ldrb	w20, [x5, #5]
.Ltmp2263:
	lsr	x26, x0, #38
	lsr	x30, x1, #40
	and	x26, x26, #0x3e0
	ldrb	w6, [x6, #5]
.Ltmp2264:
	bfxil	x26, x1, #43, #5
	add	x7, x19, x6, lsl #3
	cmp	w6, #0
	cinc	x6, x10, ne
.Ltmp2265:
	ldr	x7, [x7, #120]
.Ltmp2266:
	.loc	1 780 5
	ldrb	w6, [x19, x6]
.Ltmp2267:
	.loc	1 780 5
	add	x7, x7, x20, lsl #10
.Ltmp2268:
	ldrb	w7, [x7, x26]
.Ltmp2269:
	add	w26, w20, #1
.Ltmp2270:
	.loc	1 780 5
	cmp	w6, w26, uxtb
.Ltmp2271:
	.loc	1 780 5
	mov	x6, x0
.Ltmp2272:
	bfi	x6, x30, #40, #8
.Ltmp2273:
	.loc	1 780 5
	cset	w26, eq
.Ltmp2274:
	.loc	1 780 5
	csinc	w20, wzr, w20, eq
.Ltmp2275:
	csel	x0, x6, x0, eq
	orr	w2, w2, w7, lsl #22
.Ltmp2276:
	orr	w3, w26, w3
	strb	w20, [x5, #5]
.Ltmp2277:
.LBB17_54:
	.loc	1 781 5 is_stmt 1
	tst	x4, #0xff000000000000
.Ltmp2278:
	.loc	1 781 5 is_stmt 0
	b.eq	.LBB17_56
.Ltmp2279:
	.loc	1 781 5
	add	x6, x15, x17
	ldrb	w20, [x5, #6]
.Ltmp2280:
	lsr	x26, x0, #46
	lsr	x30, x1, #48
	and	x26, x26, #0x3e0
	ldrb	w6, [x6, #6]
.Ltmp2281:
	bfxil	x26, x1, #51, #5
	add	x7, x19, x6, lsl #3
	cmp	w6, #0
	cinc	x6, x10, ne
.Ltmp2282:
	ldr	x7, [x7, #120]
.Ltmp2283:
	.loc	1 781 5
	ldrb	w6, [x19, x6]
.Ltmp2284:
	.loc	1 781 5
	add	x7, x7, x20, lsl #10
.Ltmp2285:
	ldrb	w7, [x7, x26]
.Ltmp2286:
	add	w26, w20, #1
.Ltmp2287:
	.loc	1 781 5
	cmp	w6, w26, uxtb
.Ltmp2288:
	.loc	1 781 5
	mov	x6, x0
.Ltmp2289:
	bfi	x6, x30, #48, #8
.Ltmp2290:
	.loc	1 781 5
	cset	w26, eq
.Ltmp2291:
	.loc	1 781 5
	csinc	w20, wzr, w20, eq
.Ltmp2292:
	csel	x0, x6, x0, eq
	orr	w2, w2, w7, lsl #26
.Ltmp2293:
	orr	w3, w26, w3
	strb	w20, [x5, #6]
.Ltmp2294:
.LBB17_56:
	.loc	1 782 5 is_stmt 1
	lsr	x4, x4, #56
.Ltmp2295:
	cbnz	x4, .LBB17_58
.Ltmp2296:
	.loc	1 783 9
	cbnz	w3, .LBB17_37
	b	.LBB17_38
.Ltmp2297:
.LBB17_58:
	.loc	1 782 5
	add	x4, x15, x17
.Ltmp2298:
	.loc	1 0 0 is_stmt 0
	add	x5, x16, x17
.Ltmp2299:
	.loc	1 782 5
	lsr	x20, x0, #54
	and	x20, x20, #0x3e0
	ldrb	w4, [x4, #7]
.Ltmp2300:
	bfxil	x20, x1, #59, #5
	bfxil	x1, x0, #0, #56
.Ltmp2301:
	add	x6, x19, x4, lsl #3
	cmp	w4, #0
	ldrb	w4, [x5, #7]
.Ltmp2302:
	cinc	x7, x10, ne
	ldr	x6, [x6, #120]
.Ltmp2303:
	.loc	1 782 5
	ldrb	w7, [x19, x7]
.Ltmp2304:
	.loc	1 782 5
	add	x6, x6, x4, lsl #10
.Ltmp2305:
	ldrb	w6, [x6, x20]
.Ltmp2306:
	add	w20, w4, #1
.Ltmp2307:
	.loc	1 782 5
	cmp	w7, w20, uxtb
	cset	w7, eq
.Ltmp2308:
	.loc	1 782 5
	csinc	w4, wzr, w4, eq
.Ltmp2309:
	orr	w3, w7, w3
	csel	x0, x1, x0, eq
.Ltmp2310:
	orr	w2, w2, w6, lsl #30
.Ltmp2311:
	strb	w4, [x5, #7]
.Ltmp2312:
	.loc	1 783 9 is_stmt 1
	tbnz	w3, #0, .LBB17_37
	b	.LBB17_38
.Ltmp2313:
.LBB17_59:
	.loc	1 0 9 is_stmt 0
	ldr	x8, [sp, #8]
	.loc	1 796 1 is_stmt 1
	ldp	x20, x19, [sp, #112]
.Ltmp2314:
	ldp	x22, x21, [sp, #96]
.Ltmp2315:
	.loc	1 795 21
	str	w2, [x8]
	.loc	1 796 1
	ldp	x24, x23, [sp, #80]
.Ltmp2316:
	ldp	x26, x25, [sp, #64]
	ldp	x28, x27, [sp, #48]
.Ltmp2317:
	ldp	x29, x30, [sp, #32]
	ldr	x30, [x18, #-8]!
	add	sp, sp, #128
.Ltmp2318:
	ret
.Ltmp2319:
.Lfunc_end17:
	.size	get_overlay_image2, .Lfunc_end17-get_overlay_image2
	.cfi_endproc

	.p2align	2
	.type	get_overlay_image,@function
get_overlay_image:
.Lfunc_begin18:
	.loc	1 634 0
	.cfi_startproc
	sub	sp, sp, #112
	str	x30, [x18], #8
	.cfi_escape 0x16, 0x12, 0x02, 0x82, 0x78
	stp	x29, x30, [sp, #16]
	add	x29, sp, #16
	stp	x28, x27, [sp, #32]
	stp	x26, x25, [sp, #48]
	stp	x24, x23, [sp, #64]
	stp	x22, x21, [sp, #80]
	stp	x20, x19, [sp, #96]
	.cfi_def_cfa w29, 96
	.cfi_offset w19, -8
	.cfi_offset w20, -16
	.cfi_offset w21, -24
	.cfi_offset w22, -32
	.cfi_offset w23, -40
	.cfi_offset w24, -48
	.cfi_offset w25, -56
	.cfi_offset w26, -64
	.cfi_offset w27, -72
	.cfi_offset w28, -80
	.cfi_offset w30, -88
	.cfi_offset w29, -96
.Ltmp2320:
	.loc	1 635 29 prologue_end
	adrp	x8, global_ebc
	mov	x19, x5
.Ltmp2321:
	.loc	1 0 29 is_stmt 0
	mov	x20, x4
.Ltmp2322:
	mov	x21, x3
.Ltmp2323:
	mov	x22, x2
.Ltmp2324:
	mov	x23, x1
.Ltmp2325:
	.loc	1 635 29
	ldr	x27, [x8, :lo12:global_ebc]
.Ltmp2326:
	.loc	1 0 29
	mov	x24, x0
.Ltmp2327:
	.loc	1 644 6 is_stmt 1
	cmp	w6, #3
	.loc	1 641 17
	ldp	w11, w8, [x27, #116]
.Ltmp2328:
	.loc	1 641 23 is_stmt 0
	lsr	w12, w11, #3
.Ltmp2329:
	.loc	1 644 6 is_stmt 1
	b.eq	.LBB18_3
.Ltmp2330:
	.loc	1 0 6 is_stmt 0
	add	x9, x19, #60
.Ltmp2331:
	.loc	1 644 6
	cmp	w6, #2
	str	x9, [sp, #8]
.Ltmp2332:
	b.ne	.LBB18_4
.Ltmp2333:
	.loc	1 646 19 is_stmt 1
	cmp	w8, #0
	mov	w26, wzr
	cinc	w9, w8, lt
	asr	w28, w9, #1
.Ltmp2334:
	.loc	1 0 19 is_stmt 0
	b	.LBB18_6
.Ltmp2335:
.LBB18_3:
	.loc	1 648 14 is_stmt 1
	cmp	w8, #0
	cinc	w9, w8, lt
	asr	w26, w9, #1
.Ltmp2336:
	.loc	1 649 19
	mul	w9, w26, w12
	.loc	1 651 20
	mul	w10, w26, w11
	.loc	1 649 14
	sbfiz	x9, x9, #3, #32
	.loc	1 651 15
	add	x21, x21, x10
.Ltmp2337:
	.loc	1 652 12
	add	x20, x20, x10
.Ltmp2338:
	.loc	1 649 14
	add	x23, x23, x9
.Ltmp2339:
	.loc	1 650 14
	add	x22, x22, x9
.Ltmp2340:
	.loc	1 653 35
	add	x9, x19, #64
.Ltmp2341:
	.loc	1 0 35 is_stmt 0
	str	x9, [sp, #8]
.Ltmp2342:
	b	.LBB18_5
.Ltmp2343:
.LBB18_4:
	mov	w26, wzr
.Ltmp2344:
.LBB18_5:
	mov	w28, w8
.Ltmp2345:
.LBB18_6:
	.loc	1 659 13 is_stmt 1
	ldr	w9, [x27, #196]
.Ltmp2346:
	.loc	1 658 27
	lsr	w25, w11, #2
.Ltmp2347:
	.loc	1 0 27 is_stmt 0
	stp	w12, w11, [sp]
	.loc	1 659 6 is_stmt 1
	cbz	w9, .LBB18_36
.Ltmp2348:
	.loc	1 660 37
	sub	w8, w8, w28
	.loc	1 660 84 is_stmt 0
	sub	w9, w28, w26
	.loc	1 660 3
	mov	w1, wzr
	.loc	1 660 47
	mul	w8, w8, w25
	.loc	1 660 74
	mul	w9, w9, w25
	.loc	1 660 19
	add	x0, x24, x8
	.loc	1 660 64
	sxtw	x2, w9
	.loc	1 660 3
	bl	memset
.Ltmp2349:
	.loc	1 661 23 is_stmt 1
	ldr	w8, [x27, #120]
	.loc	1 661 34 is_stmt 0
	mvn	w9, w26
	add	w8, w8, w9
	.loc	1 661 39
	mul	w8, w8, w25
	.loc	1 662 17 is_stmt 1
	neg	w25, w25
.Ltmp2350:
	.loc	1 661 12
	add	x24, x24, x8
.Ltmp2351:
	.loc	1 668 2
	cmp	w28, w26
	b.le	.LBB18_37
.Ltmp2352:
.LBB18_8:
	.loc	1 0 2 is_stmt 0
	ldp	w9, w7, [sp]
	mov	w16, wzr
	sxtw	x8, w25
	mov	w11, #56
	.loc	1 668 2
	cmp	w9, #1
	csinc	w10, w9, wzr, hi
	add	x9, x24, #1
	lsl	x10, x10, #3
	b	.LBB18_11
.Ltmp2353:
.LBB18_9:
	.loc	1 668 22
	add	x20, x20, x12
	add	x23, x23, x12
	add	x22, x22, x12
	add	x21, x21, x12
.Ltmp2354:
.LBB18_10:
	add	w26, w26, #1
.Ltmp2355:
	.loc	1 668 2
	add	x9, x9, x8
	cmp	w26, w28
	b.eq	.LBB18_38
.Ltmp2356:
.LBB18_11:
	.loc	1 669 3 is_stmt 1
	cmp	w7, #8
	b.lo	.LBB18_10
.Ltmp2357:
	.loc	1 0 3 is_stmt 0
	mov	x12, xzr
	mov	x13, x9
	b	.LBB18_16
.Ltmp2358:
.LBB18_13:
	.loc	1 691 18 is_stmt 1
	str	x14, [x22, x12]
.Ltmp2359:
.LBB18_14:
	.loc	1 0 18 is_stmt 0
	mov	w16, #1
	.loc	1 692 21 is_stmt 1
	strb	w0, [x13]
.Ltmp2360:
.LBB18_15:
	.loc	1 669 17
	add	x12, x12, #8
.Ltmp2361:
	add	x13, x13, #2
.Ltmp2362:
	.loc	1 669 3 is_stmt 0
	cmp	x10, x12
	b.eq	.LBB18_9
.Ltmp2363:
.LBB18_16:
	.loc	1 670 19 is_stmt 1
	ldr	x15, [x23, x12]
.Ltmp2364:
	.loc	1 671 19
	ldr	x14, [x22, x12]
.Ltmp2365:
	.loc	1 673 8
	cmp	x15, x14
	b.eq	.LBB18_15
.Ltmp2366:
	.loc	1 677 28
	eor	x16, x14, x15
.Ltmp2367:
	.loc	1 680 5
	tst	x16, #0xff
.Ltmp2368:
	.loc	1 680 5 is_stmt 0
	b.eq	.LBB18_19
.Ltmp2369:
	.loc	1 680 5
	ldrb	w17, [x20, x12]
.Ltmp2370:
	lsl	w2, w14, #2
	ldrb	w1, [x21, x12]
.Ltmp2371:
	and	x2, x2, #0x3e0
	bfxil	x2, x15, #3, #5
	mov	x3, x14
	bfxil	x3, x15, #0, #8
	add	x0, x19, x17, lsl #3
	cmp	w17, #0
	cinc	x17, x11, ne
.Ltmp2372:
	add	w4, w1, #1
.Ltmp2373:
	ldr	x0, [x0, #120]
.Ltmp2374:
	.loc	1 680 5
	ldrb	w17, [x19, x17]
.Ltmp2375:
	.loc	1 680 5
	add	x0, x0, x1, lsl #10
.Ltmp2376:
	.loc	1 680 5
	cmp	w17, w4, uxtb
.Ltmp2377:
	.loc	1 680 5
	ldrb	w0, [x0, x2]
.Ltmp2378:
	.loc	1 680 5
	cset	w17, eq
.Ltmp2379:
	.loc	1 680 5
	csel	x14, x3, x14, eq
.Ltmp2380:
	csinc	w1, wzr, w1, eq
.Ltmp2381:
	strb	w1, [x21, x12]
	b	.LBB18_20
.Ltmp2382:
.LBB18_19:
	.loc	1 0 5
	mov	w0, wzr
	mov	w17, wzr
.Ltmp2383:
.LBB18_20:
	.loc	1 681 5 is_stmt 1
	add	x1, x21, x12
	tst	x16, #0xff00
.Ltmp2384:
	.loc	1 681 5 is_stmt 0
	b.eq	.LBB18_22
.Ltmp2385:
	.loc	1 681 5
	add	x2, x20, x12
	ldrb	w4, [x1, #1]
.Ltmp2386:
	lsr	x5, x14, #6
	lsr	x6, x15, #8
	and	x5, x5, #0x3e0
	ldrb	w2, [x2, #1]
.Ltmp2387:
	bfxil	x5, x15, #11, #5
	add	x3, x19, x2, lsl #3
	cmp	w2, #0
	cinc	x2, x11, ne
.Ltmp2388:
	ldr	x3, [x3, #120]
.Ltmp2389:
	.loc	1 681 5
	ldrb	w2, [x19, x2]
.Ltmp2390:
	.loc	1 681 5
	add	x3, x3, x4, lsl #10
.Ltmp2391:
	ldrb	w3, [x3, x5]
.Ltmp2392:
	add	w5, w4, #1
.Ltmp2393:
	.loc	1 681 5
	cmp	w2, w5, uxtb
.Ltmp2394:
	.loc	1 681 5
	mov	x2, x14
.Ltmp2395:
	bfi	x2, x6, #8, #8
.Ltmp2396:
	.loc	1 681 5
	cset	w5, eq
.Ltmp2397:
	.loc	1 681 5
	csinc	w4, wzr, w4, eq
	orr	w17, w5, w17
	orr	w0, w0, w3, lsl #2
.Ltmp2398:
	csel	x14, x2, x14, eq
.Ltmp2399:
	strb	w4, [x1, #1]
.Ltmp2400:
.LBB18_22:
	.loc	1 682 5 is_stmt 1
	tst	x16, #0xff0000
.Ltmp2401:
	.loc	1 682 5 is_stmt 0
	b.eq	.LBB18_24
.Ltmp2402:
	.loc	1 682 5
	add	x2, x20, x12
	ldrb	w4, [x1, #2]
.Ltmp2403:
	lsr	x5, x14, #14
	lsr	x6, x15, #16
	and	x5, x5, #0x3e0
	ldrb	w2, [x2, #2]
.Ltmp2404:
	bfxil	x5, x15, #19, #5
	add	x3, x19, x2, lsl #3
	cmp	w2, #0
	cinc	x2, x11, ne
.Ltmp2405:
	ldr	x3, [x3, #120]
.Ltmp2406:
	.loc	1 682 5
	ldrb	w2, [x19, x2]
.Ltmp2407:
	.loc	1 682 5
	add	x3, x3, x4, lsl #10
.Ltmp2408:
	ldrb	w3, [x3, x5]
.Ltmp2409:
	add	w5, w4, #1
.Ltmp2410:
	.loc	1 682 5
	cmp	w2, w5, uxtb
.Ltmp2411:
	.loc	1 682 5
	mov	x2, x14
.Ltmp2412:
	bfi	x2, x6, #16, #8
.Ltmp2413:
	.loc	1 682 5
	cset	w5, eq
.Ltmp2414:
	.loc	1 682 5
	csinc	w4, wzr, w4, eq
	orr	w17, w5, w17
	orr	w0, w0, w3, lsl #4
.Ltmp2415:
	csel	x14, x2, x14, eq
.Ltmp2416:
	strb	w4, [x1, #2]
.Ltmp2417:
.LBB18_24:
	.loc	1 683 5 is_stmt 1
	add	x1, x21, x12
	tst	x16, #0xff000000
.Ltmp2418:
	.loc	1 683 5 is_stmt 0
	b.eq	.LBB18_26
.Ltmp2419:
	.loc	1 683 5
	add	x2, x20, x12
	ldrb	w4, [x1, #3]
.Ltmp2420:
	lsr	x5, x14, #22
	lsr	x6, x15, #24
	and	x5, x5, #0x3e0
	ldrb	w2, [x2, #3]
.Ltmp2421:
	bfxil	x5, x15, #27, #5
	add	x3, x19, x2, lsl #3
	cmp	w2, #0
	cinc	x2, x11, ne
.Ltmp2422:
	ldr	x3, [x3, #120]
.Ltmp2423:
	.loc	1 683 5
	ldrb	w2, [x19, x2]
.Ltmp2424:
	.loc	1 683 5
	add	x3, x3, x4, lsl #10
.Ltmp2425:
	ldrb	w3, [x3, x5]
.Ltmp2426:
	add	w5, w4, #1
.Ltmp2427:
	.loc	1 683 5
	cmp	w2, w5, uxtb
.Ltmp2428:
	.loc	1 683 5
	mov	x2, x14
.Ltmp2429:
	bfi	x2, x6, #24, #8
.Ltmp2430:
	.loc	1 683 5
	cset	w5, eq
.Ltmp2431:
	.loc	1 683 5
	csinc	w4, wzr, w4, eq
	orr	w17, w5, w17
	orr	w0, w0, w3, lsl #6
.Ltmp2432:
	csel	x14, x2, x14, eq
.Ltmp2433:
	strb	w4, [x1, #3]
.Ltmp2434:
.LBB18_26:
	.loc	1 686 5 is_stmt 1
	tst	x16, #0xff00000000
.Ltmp2435:
	.loc	1 684 21
	sturb	w0, [x13, #-1]
.Ltmp2436:
	.loc	1 686 5
	b.eq	.LBB18_28
.Ltmp2437:
	.loc	1 686 5 is_stmt 0
	add	x0, x20, x12
	ldrb	w3, [x1, #4]
.Ltmp2438:
	lsr	x4, x14, #30
	lsr	x5, x15, #32
	and	x4, x4, #0x3e0
	ldrb	w0, [x0, #4]
.Ltmp2439:
	bfxil	x4, x15, #35, #5
	add	w6, w3, #1
.Ltmp2440:
	cmp	w0, #0
	add	x2, x19, x0, lsl #3
	cinc	x0, x11, ne
.Ltmp2441:
	ldr	x2, [x2, #120]
.Ltmp2442:
	.loc	1 686 5
	ldrb	w0, [x19, x0]
.Ltmp2443:
	.loc	1 686 5
	add	x2, x2, x3, lsl #10
.Ltmp2444:
	.loc	1 686 5
	cmp	w0, w6, uxtb
.Ltmp2445:
	.loc	1 686 5
	mov	x6, x14
.Ltmp2446:
	ldrb	w0, [x2, x4]
.Ltmp2447:
	.loc	1 686 5
	cset	w2, eq
.Ltmp2448:
	.loc	1 686 5
	bfi	x6, x5, #32, #8
	csinc	w3, wzr, w3, eq
.Ltmp2449:
	orr	w17, w2, w17
	csel	x14, x6, x14, eq
	strb	w3, [x1, #4]
	b	.LBB18_29
.Ltmp2450:
.LBB18_28:
	.loc	1 0 5
	mov	w0, wzr
.Ltmp2451:
.LBB18_29:
	.loc	1 687 5 is_stmt 1
	add	x1, x21, x12
	tst	x16, #0xff0000000000
.Ltmp2452:
	.loc	1 687 5 is_stmt 0
	b.eq	.LBB18_31
.Ltmp2453:
	.loc	1 687 5
	add	x2, x20, x12
	ldrb	w4, [x1, #5]
.Ltmp2454:
	lsr	x5, x14, #38
	lsr	x6, x15, #40
	and	x5, x5, #0x3e0
	ldrb	w2, [x2, #5]
.Ltmp2455:
	bfxil	x5, x15, #43, #5
	add	x3, x19, x2, lsl #3
	cmp	w2, #0
	cinc	x2, x11, ne
.Ltmp2456:
	ldr	x3, [x3, #120]
.Ltmp2457:
	.loc	1 687 5
	ldrb	w2, [x19, x2]
.Ltmp2458:
	.loc	1 687 5
	add	x3, x3, x4, lsl #10
.Ltmp2459:
	ldrb	w3, [x3, x5]
.Ltmp2460:
	add	w5, w4, #1
.Ltmp2461:
	.loc	1 687 5
	cmp	w2, w5, uxtb
.Ltmp2462:
	.loc	1 687 5
	mov	x2, x14
.Ltmp2463:
	bfi	x2, x6, #40, #8
.Ltmp2464:
	.loc	1 687 5
	cset	w5, eq
.Ltmp2465:
	.loc	1 687 5
	csinc	w4, wzr, w4, eq
.Ltmp2466:
	orr	w17, w5, w17
	orr	w0, w0, w3, lsl #2
.Ltmp2467:
	csel	x14, x2, x14, eq
	strb	w4, [x1, #5]
.Ltmp2468:
.LBB18_31:
	.loc	1 688 5 is_stmt 1
	tst	x16, #0xff000000000000
.Ltmp2469:
	.loc	1 688 5 is_stmt 0
	b.eq	.LBB18_33
.Ltmp2470:
	.loc	1 688 5
	add	x2, x20, x12
	ldrb	w4, [x1, #6]
.Ltmp2471:
	lsr	x5, x14, #46
	lsr	x6, x15, #48
	and	x5, x5, #0x3e0
	ldrb	w2, [x2, #6]
.Ltmp2472:
	bfxil	x5, x15, #51, #5
	add	x3, x19, x2, lsl #3
	cmp	w2, #0
	cinc	x2, x11, ne
.Ltmp2473:
	ldr	x3, [x3, #120]
.Ltmp2474:
	.loc	1 688 5
	ldrb	w2, [x19, x2]
.Ltmp2475:
	.loc	1 688 5
	add	x3, x3, x4, lsl #10
.Ltmp2476:
	ldrb	w3, [x3, x5]
.Ltmp2477:
	add	w5, w4, #1
.Ltmp2478:
	.loc	1 688 5
	cmp	w2, w5, uxtb
.Ltmp2479:
	.loc	1 688 5
	mov	x2, x14
.Ltmp2480:
	bfi	x2, x6, #48, #8
.Ltmp2481:
	.loc	1 688 5
	cset	w5, eq
.Ltmp2482:
	.loc	1 688 5
	csinc	w4, wzr, w4, eq
.Ltmp2483:
	orr	w17, w5, w17
	orr	w0, w0, w3, lsl #4
.Ltmp2484:
	csel	x14, x2, x14, eq
	strb	w4, [x1, #6]
.Ltmp2485:
.LBB18_33:
	.loc	1 689 5 is_stmt 1
	lsr	x16, x16, #56
.Ltmp2486:
	cbnz	x16, .LBB18_35
.Ltmp2487:
	.loc	1 690 9
	cbnz	w17, .LBB18_13
	b	.LBB18_14
.Ltmp2488:
.LBB18_35:
	.loc	1 689 5
	add	x16, x20, x12
.Ltmp2489:
	.loc	1 0 0 is_stmt 0
	add	x1, x21, x12
.Ltmp2490:
	.loc	1 689 5
	lsr	x4, x14, #54
	and	x4, x4, #0x3e0
	ldrb	w16, [x16, #7]
.Ltmp2491:
	bfxil	x4, x15, #59, #5
	bfxil	x15, x14, #0, #56
.Ltmp2492:
	add	x2, x19, x16, lsl #3
	cmp	w16, #0
	ldrb	w16, [x1, #7]
.Ltmp2493:
	cinc	x3, x11, ne
	ldr	x2, [x2, #120]
.Ltmp2494:
	.loc	1 689 5
	ldrb	w3, [x19, x3]
.Ltmp2495:
	.loc	1 689 5
	add	x2, x2, x16, lsl #10
.Ltmp2496:
	ldrb	w2, [x2, x4]
.Ltmp2497:
	add	w4, w16, #1
.Ltmp2498:
	.loc	1 689 5
	cmp	w3, w4, uxtb
	cset	w3, eq
.Ltmp2499:
	.loc	1 689 5
	csinc	w16, wzr, w16, eq
.Ltmp2500:
	orr	w17, w3, w17
	csel	x14, x15, x14, eq
.Ltmp2501:
	orr	w0, w0, w2, lsl #6
.Ltmp2502:
	strb	w16, [x1, #7]
.Ltmp2503:
	.loc	1 690 9 is_stmt 1
	tbnz	w17, #0, .LBB18_13
	b	.LBB18_14
.Ltmp2504:
.LBB18_36:
	.loc	1 665 43
	sub	w8, w28, w26
	.loc	1 664 17
	mul	w9, w26, w25
	.loc	1 665 3
	mov	w1, wzr
	.loc	1 665 33 is_stmt 0
	mul	w8, w8, w25
	.loc	1 664 12 is_stmt 1
	add	x24, x24, w9, sxtw
.Ltmp2505:
	.loc	1 665 23
	sxtw	x2, w8
	.loc	1 665 3 is_stmt 0
	mov	x0, x24
	bl	memset
.Ltmp2506:
	.loc	1 668 2 is_stmt 1
	cmp	w28, w26
	b.gt	.LBB18_8
.Ltmp2507:
.LBB18_37:
	.loc	1 0 2 is_stmt 0
	mov	w16, wzr
.Ltmp2508:
.LBB18_38:
	ldr	x8, [sp, #8]
	.loc	1 703 1 is_stmt 1
	ldp	x20, x19, [sp, #96]
.Ltmp2509:
	ldp	x22, x21, [sp, #80]
.Ltmp2510:
	.loc	1 702 21
	str	w16, [x8]
	.loc	1 703 1
	ldp	x24, x23, [sp, #64]
.Ltmp2511:
	ldp	x26, x25, [sp, #48]
.Ltmp2512:
	ldp	x28, x27, [sp, #32]
.Ltmp2513:
	ldp	x29, x30, [sp, #16]
	ldr	x30, [x18, #-8]!
	add	sp, sp, #112
.Ltmp2514:
	ret
.Ltmp2515:
.Lfunc_end18:
	.size	get_overlay_image, .Lfunc_end18-get_overlay_image
	.cfi_endproc

	.p2align	2
	.type	get_overlay_image_area2,@function
get_overlay_image_area2:
.Lfunc_begin19:
	.loc	1 1037 0
	.cfi_startproc
	sub	sp, sp, #160
	str	x30, [x18], #8
	.cfi_escape 0x16, 0x12, 0x02, 0x82, 0x78
	stp	x29, x30, [sp, #64]
	stp	x28, x27, [sp, #80]
	stp	x26, x25, [sp, #96]
	stp	x24, x23, [sp, #112]
	stp	x22, x21, [sp, #128]
	stp	x20, x19, [sp, #144]
	.cfi_def_cfa_offset 160
	.cfi_offset w19, -8
	.cfi_offset w20, -16
	.cfi_offset w21, -24
	.cfi_offset w22, -32
	.cfi_offset w23, -40
	.cfi_offset w24, -48
	.cfi_offset w25, -56
	.cfi_offset w26, -64
	.cfi_offset w27, -72
	.cfi_offset w28, -80
	.cfi_offset w30, -88
	.cfi_offset w29, -96
.Ltmp2516:
	.loc	1 1054 21 prologue_end
	ldr	x9, [x5, #240]
	stp	x3, x0, [sp, #48]
.Ltmp2517:
	.loc	1 1059 20
	ldp	w11, w10, [x5, #84]
.Ltmp2518:
	.loc	1 1054 35
	ldp	w12, w8, [x9, #48]
.Ltmp2519:
	.loc	1 1055 36
	ldp	w13, w14, [x9, #56]
.Ltmp2520:
	.loc	1 1059 26
	add	w15, w10, #7
	.loc	1 1054 42
	add	w9, w12, #7
	cmp	w12, #0
	csel	w12, w9, w12, lt
.Ltmp2521:
	.loc	1 1055 43
	add	w9, w13, #7
	cmp	w13, #0
	csel	w9, w9, w13, lt
	.loc	1 1059 26
	cmp	w10, #0
	.loc	1 1055 43
	asr	w13, w9, #3
	.loc	1 1059 26
	csel	w9, w15, w10, lt
	.loc	1 1055 48
	add	w10, w13, #1
.Ltmp2522:
	.loc	1 1059 26
	asr	w9, w9, #3
.Ltmp2523:
	.loc	1 0 26 is_stmt 0
	sub	w15, w9, #1
	.loc	1 1061 6 is_stmt 1
	cmp	w10, w9
	csinc	w10, w15, w13, ge
.Ltmp2524:
	.loc	1 1063 6
	sub	w13, w11, #1
	cmp	w14, w11
	csel	w11, w14, w13, lt
.Ltmp2525:
	.loc	1 1067 2
	cmp	w8, w11
	b.le	.LBB19_2
.Ltmp2526:
.LBB19_1:
	.loc	1 1086 1
	ldp	x20, x19, [sp, #144]
	ldp	x22, x21, [sp, #128]
	ldp	x24, x23, [sp, #112]
	ldp	x26, x25, [sp, #96]
	ldp	x28, x27, [sp, #80]
	ldp	x29, x30, [sp, #64]
	ldr	x30, [x18, #-8]!
	add	sp, sp, #160
	ret
.Ltmp2527:
.LBB19_2:
	.loc	1 0 0 is_stmt 0
	adrp	x13, global_ebc
.Ltmp2528:
	.loc	1 1067 2 is_stmt 1
	add	w15, w10, #1
	sxtw	x17, w15
	mov	w6, #1
.Ltmp2529:
	.loc	1 0 0 is_stmt 0
	ldr	x14, [x13, :lo12:global_ebc]
.Ltmp2530:
	asr	w13, w12, #3
.Ltmp2531:
	.loc	1 1067 2
	sbfiz	x15, x13, #3, #32
	sxtw	x16, w13
	add	x0, x1, x15
	add	x15, x2, x15
.Ltmp2532:
	.loc	1 1066 45 is_stmt 1
	ldr	w12, [x14, #116]
.Ltmp2533:
	.loc	1 0 45 is_stmt 0
	str	x14, [sp, #40]
.Ltmp2534:
	.loc	1 1067 2 is_stmt 1
	mul	w14, w8, w9
	sbfiz	x3, x13, #2, #32
	str	x15, [sp, #16]
	lsl	w15, w13, #3
.Ltmp2535:
	.loc	1 1066 36
	mul	w12, w12, w8
.Ltmp2536:
	.loc	1 0 36 is_stmt 0
	stp	x0, x3, [sp, #24]
	str	w15, [sp, #12]
	ldr	x15, [sp, #56]
.Ltmp2537:
	.loc	1 1066 51
	lsr	w12, w12, #2
.Ltmp2538:
	.loc	1 1066 26
	add	x4, x15, x12
.Ltmp2539:
	.loc	1 1067 2 is_stmt 1
	sub	x12, x17, x16
	str	x12, [sp]
	b	.LBB19_4
.Ltmp2540:
.LBB19_3:
	.loc	1 1067 33 is_stmt 0
	add	w8, w8, #1
.Ltmp2541:
	.loc	1 1067 2
	add	w14, w14, w9
	cmp	w8, w11
	b.gt	.LBB19_1
.Ltmp2542:
.LBB19_4:
	.loc	1 1068 7 is_stmt 1
	tbnz	w8, #0, .LBB19_6
.Ltmp2543:
	.loc	1 0 7 is_stmt 0
	ldr	x12, [sp, #40]
	ldr	x15, [sp, #56]
.Ltmp2544:
	.loc	1 1069 42 is_stmt 1
	ldr	w12, [x12, #116]
	.loc	1 1069 33 is_stmt 0
	mul	w12, w12, w8
	.loc	1 1069 48
	lsr	w12, w12, #2
	.loc	1 1069 28
	add	x4, x15, x12
.Ltmp2545:
.LBB19_6:
	.loc	1 1075 3 is_stmt 1
	cmp	w13, w10
	b.gt	.LBB19_3
.Ltmp2546:
	.loc	1 0 3 is_stmt 0
	ldr	x15, [sp, #24]
	sbfiz	x12, x14, #3, #32
	ldr	w16, [x5, #88]
	mov	w21, #4
	mov	w22, #8
	mov	w23, #12
	add	x7, x15, x12
	ldr	x15, [sp, #16]
	mov	w25, #16
	mov	w26, #20
	mov	w27, #24
	mov	w28, #28
	add	x19, x15, x12
	and	w12, w8, #0x1
	lsl	w20, w12, #1
	mul	w16, w16, w8
	ldr	x15, [sp, #48]
	bfi	w21, w12, #1, #1
	bfi	w22, w12, #1, #1
	bfi	w23, w12, #1, #1
	bfi	w25, w12, #1, #1
	bfi	w26, w12, #1, #1
	bfi	w27, w12, #1, #1
	bfi	w28, w12, #1, #1
	ldr	x12, [sp, #32]
	add	x24, x15, w16, sxtw
.Ltmp2547:
	ldr	x30, [sp]
	ldr	w1, [sp, #12]
.Ltmp2548:
	.loc	1 1075 3
	add	x29, x4, x12
	b	.LBB19_10
.Ltmp2549:
.LBB19_8:
	.loc	1 1082 29 is_stmt 1
	ldr	w12, [x29]
	orr	w12, w12, w17
	str	w12, [x29]
.Ltmp2550:
.LBB19_9:
	.loc	1 1075 22
	add	x7, x7, #8
	add	x19, x19, #8
	add	x29, x29, #4
	add	w1, w1, #8
	subs	x30, x30, #1
.Ltmp2551:
	.loc	1 1075 3 is_stmt 0
	b.eq	.LBB19_3
.Ltmp2552:
.LBB19_10:
	.loc	1 1076 15 is_stmt 1
	ldr	x3, [x7]
.Ltmp2553:
	.loc	1 1077 15
	ldr	x16, [x19]
.Ltmp2554:
	.loc	1 1080 8
	cmp	x3, x16
	b.eq	.LBB19_9
.Ltmp2555:
	.loc	1 1078 39
	add	x0, x24, w1, sxtw
.Ltmp2556:
	.loc	1 1081 34
	str	w6, [x5, #60]
.Ltmp2557:
	.loc	1 953 21
	eor	x12, x16, x3
.Ltmp2558:
	.loc	1 955 15
	and	x15, x12, #0xff
.Ltmp2559:
	.loc	1 954 21
	ldrb	w17, [x0]
.Ltmp2560:
	.loc	1 955 23
	cmp	x15, #0
	ccmp	w17, #0, #0, ne
	b.eq	.LBB19_13
.Ltmp2561:
	.loc	1 0 23 is_stmt 0
	mov	w17, wzr
.Ltmp2562:
	.loc	1 965 15 is_stmt 1
	tst	x12, #0xff00
	.loc	1 965 25 is_stmt 0
	b.ne	.LBB19_14
	b	.LBB19_16
.Ltmp2563:
.LBB19_13:
	.loc	1 958 35 is_stmt 1
	lsl	w15, w16, #2
	.loc	1 957 17
	ldr	x17, [x5, #120]
.Ltmp2564:
	.loc	1 958 40
	and	x15, x15, #0x3e0
	.loc	1 958 49 is_stmt 0
	bfxil	x15, x3, #3, #5
	.loc	1 958 16
	ldrb	w15, [x17, x15]
.Ltmp2565:
	.loc	1 960 16 is_stmt 1
	strb	w6, [x0]
	.loc	1 959 27
	lsl	w17, w15, w20
.Ltmp2566:
	.loc	1 965 15
	tst	x12, #0xff00
	.loc	1 965 25 is_stmt 0
	b.eq	.LBB19_16
.Ltmp2567:
.LBB19_14:
	.loc	1 0 0
	ldrb	w15, [x0, #1]
.Ltmp2568:
	.loc	1 965 25
	cbnz	w15, .LBB19_16
.Ltmp2569:
	.loc	1 968 35 is_stmt 1
	lsr	x15, x16, #6
	.loc	1 967 17
	ldr	x2, [x5, #120]
.Ltmp2570:
	.loc	1 968 40
	and	x15, x15, #0x3e0
	.loc	1 968 49 is_stmt 0
	bfxil	x15, x3, #11, #5
	.loc	1 968 16
	ldrb	w15, [x2, x15]
.Ltmp2571:
	.loc	1 970 16 is_stmt 1
	strb	w6, [x0, #1]
	.loc	1 969 27
	lsl	w15, w15, w21
.Ltmp2572:
	.loc	1 969 13 is_stmt 0
	orr	w17, w15, w17
.Ltmp2573:
.LBB19_16:
	.loc	1 975 15 is_stmt 1
	tst	x12, #0xff0000
	.loc	1 975 27 is_stmt 0
	b.eq	.LBB19_19
.Ltmp2574:
	.loc	1 0 0
	ldrb	w15, [x0, #2]
.Ltmp2575:
	.loc	1 975 27
	cbnz	w15, .LBB19_19
.Ltmp2576:
	.loc	1 978 35 is_stmt 1
	lsr	x15, x16, #14
	.loc	1 977 17
	ldr	x2, [x5, #120]
.Ltmp2577:
	.loc	1 978 41
	and	x15, x15, #0x3e0
	.loc	1 978 50 is_stmt 0
	bfxil	x15, x3, #19, #5
	.loc	1 978 16
	ldrb	w15, [x2, x15]
.Ltmp2578:
	.loc	1 980 16 is_stmt 1
	strb	w6, [x0, #2]
	.loc	1 979 27
	lsl	w15, w15, w22
.Ltmp2579:
	.loc	1 979 13 is_stmt 0
	orr	w17, w15, w17
.Ltmp2580:
.LBB19_19:
	.loc	1 985 15 is_stmt 1
	tst	x12, #0xff000000
	.loc	1 985 29 is_stmt 0
	b.eq	.LBB19_22
.Ltmp2581:
	.loc	1 0 0
	ldrb	w15, [x0, #3]
.Ltmp2582:
	.loc	1 985 29
	cbnz	w15, .LBB19_22
.Ltmp2583:
	.loc	1 988 35 is_stmt 1
	lsr	x15, x16, #22
	.loc	1 987 17
	ldr	x2, [x5, #120]
.Ltmp2584:
	.loc	1 988 41
	and	x15, x15, #0x3e0
	.loc	1 988 50 is_stmt 0
	bfxil	x15, x3, #27, #5
	.loc	1 988 16
	ldrb	w15, [x2, x15]
.Ltmp2585:
	.loc	1 990 16 is_stmt 1
	strb	w6, [x0, #3]
	.loc	1 989 27
	lsl	w15, w15, w23
.Ltmp2586:
	.loc	1 989 13 is_stmt 0
	orr	w17, w15, w17
.Ltmp2587:
.LBB19_22:
	.loc	1 995 15 is_stmt 1
	tst	x12, #0xff00000000
	.loc	1 995 31 is_stmt 0
	b.eq	.LBB19_25
.Ltmp2588:
	.loc	1 0 0
	ldrb	w15, [x0, #4]
.Ltmp2589:
	.loc	1 995 31
	cbnz	w15, .LBB19_25
.Ltmp2590:
	.loc	1 998 35 is_stmt 1
	lsr	x15, x16, #30
	.loc	1 997 17
	ldr	x2, [x5, #120]
.Ltmp2591:
	.loc	1 998 41
	and	x15, x15, #0x3e0
	.loc	1 998 50 is_stmt 0
	bfxil	x15, x3, #35, #5
	.loc	1 998 16
	ldrb	w15, [x2, x15]
.Ltmp2592:
	.loc	1 1000 16 is_stmt 1
	strb	w6, [x0, #4]
	.loc	1 999 27
	lsl	w15, w15, w25
.Ltmp2593:
	.loc	1 999 13 is_stmt 0
	orr	w17, w15, w17
.Ltmp2594:
.LBB19_25:
	.loc	1 1005 15 is_stmt 1
	tst	x12, #0xff0000000000
	.loc	1 1005 33 is_stmt 0
	b.eq	.LBB19_28
.Ltmp2595:
	.loc	1 0 0
	ldrb	w15, [x0, #5]
.Ltmp2596:
	.loc	1 1005 33
	cbnz	w15, .LBB19_28
.Ltmp2597:
	.loc	1 1008 35 is_stmt 1
	lsr	x15, x16, #38
	.loc	1 1007 17
	ldr	x2, [x5, #120]
.Ltmp2598:
	.loc	1 1008 41
	and	x15, x15, #0x3e0
	.loc	1 1008 50 is_stmt 0
	bfxil	x15, x3, #43, #5
	.loc	1 1008 16
	ldrb	w15, [x2, x15]
.Ltmp2599:
	.loc	1 1010 16 is_stmt 1
	strb	w6, [x0, #5]
	.loc	1 1009 27
	lsl	w15, w15, w26
.Ltmp2600:
	.loc	1 1009 13 is_stmt 0
	orr	w17, w15, w17
.Ltmp2601:
.LBB19_28:
	.loc	1 1015 15 is_stmt 1
	tst	x12, #0xff000000000000
	.loc	1 1015 35 is_stmt 0
	b.eq	.LBB19_31
.Ltmp2602:
	.loc	1 0 0
	ldrb	w15, [x0, #6]
.Ltmp2603:
	.loc	1 1015 35
	cbnz	w15, .LBB19_31
.Ltmp2604:
	.loc	1 1018 35 is_stmt 1
	lsr	x15, x16, #46
	.loc	1 1017 17
	ldr	x2, [x5, #120]
.Ltmp2605:
	.loc	1 1018 41
	and	x15, x15, #0x3e0
	.loc	1 1018 50 is_stmt 0
	bfxil	x15, x3, #51, #5
	.loc	1 1018 16
	ldrb	w15, [x2, x15]
.Ltmp2606:
	.loc	1 1020 16 is_stmt 1
	strb	w6, [x0, #6]
	.loc	1 1019 27
	lsl	w15, w15, w27
.Ltmp2607:
	.loc	1 1019 13 is_stmt 0
	orr	w17, w15, w17
.Ltmp2608:
.LBB19_31:
	.loc	1 1025 37 is_stmt 1
	lsr	x12, x12, #56
.Ltmp2609:
	cbz	x12, .LBB19_8
.Ltmp2610:
	.loc	1 0 0 is_stmt 0
	ldrb	w12, [x0, #7]
.Ltmp2611:
	.loc	1 1025 37
	cbnz	w12, .LBB19_8
.Ltmp2612:
	.loc	1 1028 35 is_stmt 1
	lsr	x12, x16, #54
	.loc	1 1027 17
	ldr	x15, [x5, #120]
.Ltmp2613:
	.loc	1 1028 41
	and	x12, x12, #0x3e0
	.loc	1 1028 50 is_stmt 0
	bfxil	x12, x3, #59, #5
	.loc	1 1028 16
	ldrb	w12, [x15, x12]
.Ltmp2614:
	.loc	1 1030 16 is_stmt 1
	strb	w6, [x0, #7]
.Ltmp2615:
	.loc	1 1029 27
	lsl	w12, w12, w28
.Ltmp2616:
	.loc	1 1029 13 is_stmt 0
	orr	w17, w12, w17
.Ltmp2617:
	.loc	1 0 13
	b	.LBB19_8
.Ltmp2618:
.Lfunc_end19:
	.size	get_overlay_image_area2, .Lfunc_end19-get_overlay_image_area2
	.cfi_endproc

	.p2align	2
	.type	get_overlay_image_area,@function
get_overlay_image_area:
.Lfunc_begin20:
	.loc	1 799 0 is_stmt 1
	.cfi_startproc
	sub	sp, sp, #144
	str	x30, [x18], #8
	.cfi_escape 0x16, 0x12, 0x02, 0x82, 0x78
	stp	x29, x30, [sp, #48]
	stp	x28, x27, [sp, #64]
	stp	x26, x25, [sp, #80]
	stp	x24, x23, [sp, #96]
	stp	x22, x21, [sp, #112]
	stp	x20, x19, [sp, #128]
	.cfi_def_cfa_offset 144
	.cfi_offset w19, -8
	.cfi_offset w20, -16
	.cfi_offset w21, -24
	.cfi_offset w22, -32
	.cfi_offset w23, -40
	.cfi_offset w24, -48
	.cfi_offset w25, -56
	.cfi_offset w26, -64
	.cfi_offset w27, -72
	.cfi_offset w28, -80
	.cfi_offset w30, -88
	.cfi_offset w29, -96
.Ltmp2619:
	.loc	1 823 21 prologue_end
	ldr	x9, [x5, #240]
	stp	x3, x4, [sp, #32]
.Ltmp2620:
	.loc	1 828 20
	ldp	w11, w10, [x5, #84]
.Ltmp2621:
	.loc	1 0 20 is_stmt 0
	str	x0, [sp, #24]
.Ltmp2622:
	.loc	1 823 35 is_stmt 1
	ldp	w12, w8, [x9, #48]
.Ltmp2623:
	.loc	1 824 36
	ldp	w13, w14, [x9, #56]
.Ltmp2624:
	.loc	1 828 26
	add	w15, w10, #7
	.loc	1 823 42
	add	w9, w12, #7
	cmp	w12, #0
	csel	w12, w9, w12, lt
.Ltmp2625:
	.loc	1 824 43
	add	w9, w13, #7
	cmp	w13, #0
	csel	w9, w9, w13, lt
	.loc	1 828 26
	cmp	w10, #0
	.loc	1 824 43
	asr	w13, w9, #3
	.loc	1 828 26
	csel	w9, w15, w10, lt
	.loc	1 824 48
	add	w10, w13, #1
.Ltmp2626:
	.loc	1 828 26
	asr	w9, w9, #3
.Ltmp2627:
	.loc	1 0 26 is_stmt 0
	sub	w15, w9, #1
	.loc	1 830 6 is_stmt 1
	cmp	w10, w9
	csinc	w10, w15, w13, ge
.Ltmp2628:
	.loc	1 832 6
	sub	w13, w11, #1
	cmp	w14, w11
	csel	w11, w14, w13, lt
.Ltmp2629:
	.loc	1 835 2
	cmp	w8, w11
	b.le	.LBB20_2
.Ltmp2630:
.LBB20_1:
	.loc	1 941 1
	ldp	x20, x19, [sp, #128]
	ldp	x22, x21, [sp, #112]
	ldp	x24, x23, [sp, #96]
	ldp	x26, x25, [sp, #80]
	ldp	x28, x27, [sp, #64]
	ldp	x29, x30, [sp, #48]
	ldr	x30, [x18, #-8]!
	add	sp, sp, #144
	ret
.Ltmp2631:
.LBB20_2:
	.loc	1 0 0 is_stmt 0
	adrp	x14, global_ebc
	asr	w12, w12, #3
.Ltmp2632:
	.loc	1 835 2 is_stmt 1
	lsl	w16, w12, #3
	add	w15, w10, #1
	mul	w13, w8, w9
	sxtw	x0, w12
.Ltmp2633:
	.loc	1 0 0 is_stmt 0
	ldr	x14, [x14, :lo12:global_ebc]
.Ltmp2634:
	sxtw	x15, w15
.Ltmp2635:
	.loc	1 835 2
	sbfiz	x3, x12, #3, #32
	str	w16, [sp, #20]
	lsl	w16, w12, #1
	add	x17, x1, x3
	add	x1, x2, x3
.Ltmp2636:
	.loc	1 0 0
	ldr	w2, [x14, #196]
.Ltmp2637:
	.loc	1 835 2
	sub	x6, x15, x0
	mov	w7, #1
	str	x17, [sp, #8]
	b	.LBB20_4
.Ltmp2638:
.LBB20_3:
	.loc	1 835 33
	add	w8, w8, #1
.Ltmp2639:
	.loc	1 835 2
	add	w13, w13, w9
	cmp	w8, w11
	b.gt	.LBB20_1
.Ltmp2640:
.LBB20_4:
	.loc	1 836 7 is_stmt 1
	cbz	w2, .LBB20_6
.Ltmp2641:
	.loc	1 837 39
	ldp	w0, w15, [x14, #116]
	.loc	1 837 50 is_stmt 0
	mvn	w3, w8
.Ltmp2642:
	add	w15, w15, w3
.Ltmp2643:
	.loc	1 845 3 is_stmt 1
	cmp	w12, w10
	b.gt	.LBB20_3
	b	.LBB20_7
.Ltmp2644:
.LBB20_6:
	.loc	1 839 42
	ldr	w15, [x14, #116]
	mov	w0, w8
.Ltmp2645:
	.loc	1 845 3
	cmp	w12, w10
	b.gt	.LBB20_3
.Ltmp2646:
.LBB20_7:
	.loc	1 0 3 is_stmt 0
	ldr	x17, [sp, #8]
	sbfiz	x4, x13, #3, #32
	ldr	w3, [x5, #88]
	mul	w15, w15, w0
	mov	x19, x6
	add	x21, x1, x4
	add	x20, x17, x4
	ldr	x17, [sp, #24]
	mul	w0, w3, w8
	mov	w25, w16
	ldr	w26, [sp, #20]
	add	x22, x17, x15, lsr #2
.Ltmp2647:
	ldr	x17, [sp, #32]
	sxtw	x15, w0
	add	x23, x17, x15
.Ltmp2648:
	ldr	x17, [sp, #40]
	add	x24, x17, x15
.Ltmp2649:
	b	.LBB20_10
.Ltmp2650:
.LBB20_8:
	.loc	1 937 22 is_stmt 1
	strb	w0, [x27, #1]
.Ltmp2651:
.LBB20_9:
	.loc	1 845 22
	add	w26, w26, #8
.Ltmp2652:
	add	w25, w25, #2
	add	x20, x20, #8
	add	x21, x21, #8
	subs	x19, x19, #1
.Ltmp2653:
	.loc	1 845 3 is_stmt 0
	b.eq	.LBB20_3
.Ltmp2654:
.LBB20_10:
	.loc	1 849 15 is_stmt 1
	ldr	x28, [x20]
.Ltmp2655:
	.loc	1 850 15
	ldr	x29, [x21]
.Ltmp2656:
	.loc	1 853 8
	cmp	x28, x29
	b.eq	.LBB20_9
.Ltmp2657:
	.loc	1 0 0 is_stmt 0
	add	x27, x22, w25, sxtw
.Ltmp2658:
	sxtw	x15, w26
	add	x30, x23, x15
.Ltmp2659:
	add	x15, x24, x15
.Ltmp2660:
	.loc	1 855 24 is_stmt 1
	eor	x4, x29, x28
.Ltmp2661:
	.loc	1 0 0 is_stmt 0
	ldrb	w3, [x27]
.Ltmp2662:
	.loc	1 857 18 is_stmt 1
	tst	x4, #0xff
.Ltmp2663:
	.loc	1 854 34
	str	w7, [x5, #60]
.Ltmp2664:
	.loc	1 857 26
	b.eq	.LBB20_14
.Ltmp2665:
	.loc	1 0 0 is_stmt 0
	ldrb	w0, [x30]
.Ltmp2666:
	.loc	1 857 26
	cbnz	w0, .LBB20_14
.Ltmp2667:
	.loc	1 858 22 is_stmt 1
	ldrb	w0, [x15]
.Ltmp2668:
	.loc	1 860 38
	lsl	w17, w29, #2
	.loc	1 860 43 is_stmt 0
	and	x17, x17, #0x3e0
	.loc	1 860 52
	bfxil	x17, x28, #3, #5
	.loc	1 859 20 is_stmt 1
	add	x0, x5, x0, lsl #3
	ldr	x0, [x0, #120]
.Ltmp2669:
	.loc	1 860 19
	ldrb	w17, [x0, x17]
.Ltmp2670:
	.loc	1 862 24
	strb	w7, [x30]
	.loc	1 861 16
	orr	w3, w17, w3
.Ltmp2671:
.LBB20_14:
	.loc	1 867 18
	tst	x4, #0xff00
	.loc	1 867 28 is_stmt 0
	b.eq	.LBB20_17
.Ltmp2672:
	.loc	1 0 0
	ldrb	w17, [x30, #1]
.Ltmp2673:
	.loc	1 867 28
	cbnz	w17, .LBB20_17
.Ltmp2674:
	.loc	1 868 22 is_stmt 1
	ldrb	w17, [x15, #1]
.Ltmp2675:
	.loc	1 870 38
	lsr	x0, x29, #6
	.loc	1 870 43 is_stmt 0
	and	x0, x0, #0x3e0
	.loc	1 870 52
	bfxil	x0, x28, #11, #5
	.loc	1 869 20 is_stmt 1
	add	x17, x5, x17, lsl #3
	ldr	x17, [x17, #120]
.Ltmp2676:
	.loc	1 870 19
	ldrb	w17, [x17, x0]
.Ltmp2677:
	.loc	1 872 24
	strb	w7, [x30, #1]
	.loc	1 871 16
	orr	w3, w3, w17, lsl #2
.Ltmp2678:
.LBB20_17:
	.loc	1 877 18
	tst	x4, #0xff0000
.Ltmp2679:
	.loc	1 877 30 is_stmt 0
	b.eq	.LBB20_20
.Ltmp2680:
	.loc	1 0 0
	ldrb	w17, [x30, #2]
.Ltmp2681:
	.loc	1 877 30
	cbnz	w17, .LBB20_20
.Ltmp2682:
	.loc	1 878 22 is_stmt 1
	ldrb	w17, [x15, #2]
.Ltmp2683:
	.loc	1 880 38
	lsr	x0, x29, #14
	.loc	1 880 44 is_stmt 0
	and	x0, x0, #0x3e0
	.loc	1 880 53
	bfxil	x0, x28, #19, #5
	.loc	1 879 20 is_stmt 1
	add	x17, x5, x17, lsl #3
	ldr	x17, [x17, #120]
.Ltmp2684:
	.loc	1 880 19
	ldrb	w17, [x17, x0]
.Ltmp2685:
	.loc	1 882 24
	strb	w7, [x30, #2]
	.loc	1 881 16
	orr	w3, w3, w17, lsl #4
.Ltmp2686:
.LBB20_20:
	.loc	1 887 18
	tst	x4, #0xff000000
.Ltmp2687:
	.loc	1 887 32 is_stmt 0
	b.eq	.LBB20_23
.Ltmp2688:
	.loc	1 0 0
	ldrb	w17, [x30, #3]
.Ltmp2689:
	.loc	1 887 32
	cbnz	w17, .LBB20_23
.Ltmp2690:
	.loc	1 888 22 is_stmt 1
	ldrb	w17, [x15, #3]
.Ltmp2691:
	.loc	1 890 38
	lsr	x0, x29, #22
	.loc	1 890 44 is_stmt 0
	and	x0, x0, #0x3e0
	.loc	1 890 53
	bfxil	x0, x28, #27, #5
	.loc	1 889 20 is_stmt 1
	add	x17, x5, x17, lsl #3
	ldr	x17, [x17, #120]
.Ltmp2692:
	.loc	1 890 19
	ldrb	w17, [x17, x0]
.Ltmp2693:
	.loc	1 892 24
	strb	w7, [x30, #3]
	.loc	1 891 16
	orr	w3, w3, w17, lsl #6
.Ltmp2694:
.LBB20_23:
	.loc	1 896 17
	ldrb	w0, [x27, #1]
.Ltmp2695:
	.loc	1 900 18
	tst	x4, #0xff00000000
.Ltmp2696:
	.loc	1 894 22
	strb	w3, [x27]
.Ltmp2697:
	.loc	1 900 34
	b.eq	.LBB20_26
.Ltmp2698:
	.loc	1 0 0 is_stmt 0
	ldrb	w17, [x30, #4]
.Ltmp2699:
	.loc	1 900 34
	cbnz	w17, .LBB20_26
.Ltmp2700:
	.loc	1 901 22 is_stmt 1
	ldrb	w17, [x15, #4]
.Ltmp2701:
	.loc	1 903 38
	lsr	x3, x29, #30
	.loc	1 903 44 is_stmt 0
	and	x3, x3, #0x3e0
	.loc	1 903 53
	bfxil	x3, x28, #35, #5
	.loc	1 902 20 is_stmt 1
	add	x17, x5, x17, lsl #3
	ldr	x17, [x17, #120]
.Ltmp2702:
	.loc	1 903 19
	ldrb	w17, [x17, x3]
.Ltmp2703:
	.loc	1 905 24
	strb	w7, [x30, #4]
	.loc	1 904 16
	orr	w0, w17, w0
.Ltmp2704:
.LBB20_26:
	.loc	1 910 18
	tst	x4, #0xff0000000000
.Ltmp2705:
	.loc	1 910 36 is_stmt 0
	b.eq	.LBB20_29
.Ltmp2706:
	.loc	1 0 0
	ldrb	w17, [x30, #5]
.Ltmp2707:
	.loc	1 910 36
	cbnz	w17, .LBB20_29
.Ltmp2708:
	.loc	1 911 22 is_stmt 1
	ldrb	w17, [x15, #5]
.Ltmp2709:
	.loc	1 913 38
	lsr	x3, x29, #38
	.loc	1 913 44 is_stmt 0
	and	x3, x3, #0x3e0
	.loc	1 913 53
	bfxil	x3, x28, #43, #5
	.loc	1 912 20 is_stmt 1
	add	x17, x5, x17, lsl #3
	ldr	x17, [x17, #120]
.Ltmp2710:
	.loc	1 913 19
	ldrb	w17, [x17, x3]
.Ltmp2711:
	.loc	1 915 24
	strb	w7, [x30, #5]
	.loc	1 914 16
	orr	w0, w0, w17, lsl #2
.Ltmp2712:
.LBB20_29:
	.loc	1 920 18
	tst	x4, #0xff000000000000
.Ltmp2713:
	.loc	1 920 38 is_stmt 0
	b.eq	.LBB20_32
.Ltmp2714:
	.loc	1 0 0
	ldrb	w17, [x30, #6]
.Ltmp2715:
	.loc	1 920 38
	cbnz	w17, .LBB20_32
.Ltmp2716:
	.loc	1 921 22 is_stmt 1
	ldrb	w17, [x15, #6]
.Ltmp2717:
	.loc	1 923 38
	lsr	x3, x29, #46
	.loc	1 923 44 is_stmt 0
	and	x3, x3, #0x3e0
	.loc	1 923 53
	bfxil	x3, x28, #51, #5
	.loc	1 922 20 is_stmt 1
	add	x17, x5, x17, lsl #3
	ldr	x17, [x17, #120]
.Ltmp2718:
	.loc	1 923 19
	ldrb	w17, [x17, x3]
.Ltmp2719:
	.loc	1 925 24
	strb	w7, [x30, #6]
	.loc	1 924 16
	orr	w0, w0, w17, lsl #4
.Ltmp2720:
.LBB20_32:
	.loc	1 930 40
	lsr	x17, x4, #56
.Ltmp2721:
	cbz	x17, .LBB20_8
.Ltmp2722:
	.loc	1 0 0 is_stmt 0
	ldrb	w17, [x30, #7]
.Ltmp2723:
	.loc	1 930 40
	cbnz	w17, .LBB20_8
.Ltmp2724:
	.loc	1 931 22 is_stmt 1
	ldrb	w15, [x15, #7]
.Ltmp2725:
	.loc	1 933 38
	lsr	x17, x29, #54
	.loc	1 933 44 is_stmt 0
	and	x17, x17, #0x3e0
	.loc	1 933 53
	bfxil	x17, x28, #59, #5
	.loc	1 932 20 is_stmt 1
	add	x15, x5, x15, lsl #3
	ldr	x15, [x15, #120]
.Ltmp2726:
	.loc	1 933 19
	ldrb	w15, [x15, x17]
.Ltmp2727:
	.loc	1 935 24
	strb	w7, [x30, #7]
	.loc	1 934 16
	orr	w0, w0, w15, lsl #6
.Ltmp2728:
	.loc	1 0 16 is_stmt 0
	b	.LBB20_8
.Ltmp2729:
.Lfunc_end20:
	.size	get_overlay_image_area, .Lfunc_end20-get_overlay_image_area
	.cfi_endproc

	.p2align	2
	.type	get_auto_image2,@function
get_auto_image2:
.Lfunc_begin21:
	.loc	1 1380 0 is_stmt 1
	.cfi_startproc
	sub	sp, sp, #144
	str	x30, [x18], #8
	.cfi_escape 0x16, 0x12, 0x02, 0x82, 0x78
	stp	x29, x30, [sp, #48]
	add	x29, sp, #48
	stp	x28, x27, [sp, #64]
	stp	x26, x25, [sp, #80]
	stp	x24, x23, [sp, #96]
	stp	x22, x21, [sp, #112]
	stp	x20, x19, [sp, #128]
	.cfi_def_cfa w29, 96
	.cfi_offset w19, -8
	.cfi_offset w20, -16
	.cfi_offset w21, -24
	.cfi_offset w22, -32
	.cfi_offset w23, -40
	.cfi_offset w24, -48
	.cfi_offset w25, -56
	.cfi_offset w26, -64
	.cfi_offset w27, -72
	.cfi_offset w28, -80
	.cfi_offset w30, -88
	.cfi_offset w29, -96
.Ltmp2730:
	.loc	1 1381 29 prologue_end
	adrp	x8, global_ebc
	mov	x19, x4
.Ltmp2731:
	.loc	1 0 29 is_stmt 0
	mov	x20, x3
.Ltmp2732:
	mov	x21, x2
.Ltmp2733:
	mov	x22, x1
.Ltmp2734:
	.loc	1 1394 6 is_stmt 1
	cmp	w5, #3
	.loc	1 1381 29
	ldr	x8, [x8, :lo12:global_ebc]
.Ltmp2735:
	.loc	1 0 29 is_stmt 0
	stur	x0, [x29, #-8]
.Ltmp2736:
	.loc	1 1391 17 is_stmt 1
	ldp	w23, w25, [x8, #116]
	str	x8, [sp, #24]
.Ltmp2737:
	.loc	1 1391 23 is_stmt 0
	lsr	w24, w23, #3
.Ltmp2738:
	.loc	1 1394 6 is_stmt 1
	b.eq	.LBB21_3
.Ltmp2739:
	.loc	1 0 6 is_stmt 0
	add	x8, x19, #60
.Ltmp2740:
	.loc	1 1394 6
	cmp	w5, #2
	str	x8, [sp, #8]
.Ltmp2741:
	b.ne	.LBB21_4
.Ltmp2742:
	.loc	1 1396 19 is_stmt 1
	cmp	w25, #0
	mov	w27, wzr
	cinc	w8, w25, lt
	asr	w25, w8, #1
.Ltmp2743:
	.loc	1 0 19 is_stmt 0
	b	.LBB21_5
.Ltmp2744:
.LBB21_3:
	.loc	1 1398 14 is_stmt 1
	cmp	w25, #0
	cinc	w8, w25, lt
	asr	w27, w8, #1
.Ltmp2745:
	.loc	1 1399 19
	mul	w8, w27, w24
	.loc	1 1401 20
	mul	w9, w27, w23
	.loc	1 1399 14
	sbfiz	x8, x8, #3, #32
	add	x22, x22, x8
.Ltmp2746:
	.loc	1 1400 14
	add	x21, x21, x8
.Ltmp2747:
	.loc	1 1401 15
	add	x20, x20, x9
.Ltmp2748:
	.loc	1 1402 35
	add	x8, x19, #64
.Ltmp2749:
	.loc	1 0 35 is_stmt 0
	str	x8, [sp, #8]
.Ltmp2750:
	b	.LBB21_5
.Ltmp2751:
.LBB21_4:
	mov	w27, wzr
.Ltmp2752:
.LBB21_5:
	.loc	1 1407 55 is_stmt 1
	subs	w8, w25, w27
	.loc	1 1407 23 is_stmt 0
	mul	w9, w27, w23
	ldur	x10, [x29, #-8]
	.loc	1 1407 2
	mov	w1, wzr
	.loc	1 1407 60
	mul	w8, w8, w23
	.loc	1 1407 38
	lsr	w9, w9, #2
	.loc	1 1407 18
	add	x0, x10, x9
	.loc	1 1407 75
	lsr	w2, w8, #2
	.loc	1 1407 2
	bl	memset
.Ltmp2753:
	.loc	1 0 2
	mov	w8, wzr
	.loc	1 1407 55
	cmp	w25, w27
.Ltmp2754:
	.loc	1 1408 2 is_stmt 1
	b.le	.LBB21_19
.Ltmp2755:
	cmp	w24, #1
	mov	w8, wzr
	csinc	w9, w24, wzr, hi
	stur	w23, [x29, #-12]
	lsl	x24, x9, #3
.Ltmp2756:
	.loc	1 0 2 is_stmt 0
	str	x9, [sp, #16]
	b	.LBB21_9
.Ltmp2757:
.LBB21_7:
	.loc	1 1408 23
	add	x22, x22, x23
	add	x21, x21, x23
	add	x20, x20, x23
	ldur	w23, [x29, #-12]
.Ltmp2758:
.LBB21_8:
	add	w27, w27, #2
.Ltmp2759:
	.loc	1 1408 2
	cmp	w27, w25
	b.ge	.LBB21_19
.Ltmp2760:
.LBB21_9:
	.loc	1 1410 3 is_stmt 1
	cmp	w23, #8
	b.lo	.LBB21_8
.Ltmp2761:
	.loc	1 0 3 is_stmt 0
	ldp	x26, x9, [sp, #16]
	ldr	w9, [x9, #116]
.Ltmp2762:
	.loc	1 1410 3
	mul	w28, w9, w27
	ldur	x9, [x29, #-8]
.Ltmp2763:
	add	x23, x9, x28, lsr #2
	b	.LBB21_12
.Ltmp2764:
.LBB21_11:
	.loc	1 1417 14 is_stmt 1
	add	x21, x21, #8
.Ltmp2765:
	.loc	1 1418 14
	add	x22, x22, #8
.Ltmp2766:
	.loc	1 1419 16
	add	x20, x20, #8
.Ltmp2767:
	.loc	1 1410 17
	add	x23, x23, #4
	subs	x26, x26, #1
.Ltmp2768:
	.loc	1 1410 3 is_stmt 0
	b.eq	.LBB21_14
.Ltmp2769:
.LBB21_12:
	.loc	1 1411 15 is_stmt 1
	ldr	x9, [x22]
.Ltmp2770:
	.loc	1 1412 15
	ldr	x10, [x21]
.Ltmp2771:
	.loc	1 1413 8
	cmp	x9, x10
	b.eq	.LBB21_11
.Ltmp2772:
	.loc	1 1415 31
	mov	x0, x22
	mov	x1, x21
	mov	x2, x20
	mov	x3, x19
	mov	w4, wzr
	bl	get_one_auto_image2
.Ltmp2773:
	.loc	1 0 31 is_stmt 0
	mov	w8, #1
	.loc	1 1415 29
	str	w0, [x23]
	b	.LBB21_11
.Ltmp2774:
.LBB21_14:
	.loc	1 0 29
	ldur	w23, [x29, #-12]
.Ltmp2775:
	.loc	1 1421 3 is_stmt 1
	cmp	w23, #8
	b.lo	.LBB21_8
.Ltmp2776:
	.loc	1 0 3 is_stmt 0
	ldur	x9, [x29, #-8]
	mov	x23, xzr
	.loc	1 1421 3
	add	x26, x9, x28, lsr #2
	b	.LBB21_17
.Ltmp2777:
.LBB21_16:
	.loc	1 1421 17
	add	x26, x26, #4
	add	x23, x23, #8
.Ltmp2778:
	.loc	1 1421 3
	cmp	x24, x23
	b.eq	.LBB21_7
.Ltmp2779:
.LBB21_17:
	.loc	1 0 0
	add	x0, x22, x23
.Ltmp2780:
	add	x1, x21, x23
.Ltmp2781:
	.loc	1 1422 15 is_stmt 1
	ldr	x9, [x0]
.Ltmp2782:
	.loc	1 1423 15
	ldr	x10, [x1]
.Ltmp2783:
	.loc	1 1424 8
	cmp	x9, x10
	b.eq	.LBB21_16
.Ltmp2784:
	.loc	1 0 0 is_stmt 0
	add	x2, x20, x23
.Ltmp2785:
	.loc	1 1426 32 is_stmt 1
	mov	x3, x19
	mov	w4, #2
	bl	get_one_auto_image2
.Ltmp2786:
	.loc	1 1426 29 is_stmt 0
	ldr	w8, [x26]
	orr	w9, w8, w0
	mov	w8, #1
	str	w9, [x26]
	b	.LBB21_16
.Ltmp2787:
.LBB21_19:
	.loc	1 0 29
	ldr	x9, [sp, #8]
	.loc	1 1434 1 is_stmt 1
	ldp	x20, x19, [sp, #128]
.Ltmp2788:
	ldp	x22, x21, [sp, #112]
.Ltmp2789:
	.loc	1 1433 21
	str	w8, [x9]
	.loc	1 1434 1
	ldp	x24, x23, [sp, #96]
	ldp	x26, x25, [sp, #80]
.Ltmp2790:
	ldp	x28, x27, [sp, #64]
.Ltmp2791:
	ldp	x29, x30, [sp, #48]
	ldr	x30, [x18, #-8]!
	add	sp, sp, #144
.Ltmp2792:
	ret
.Ltmp2793:
.Lfunc_end21:
	.size	get_auto_image2, .Lfunc_end21-get_auto_image2
	.cfi_endproc

	.p2align	2
	.type	get_auto_image,@function
get_auto_image:
.Lfunc_begin22:
	.loc	1 1089 0
	.cfi_startproc
	stp	x26, x25, [sp, #-64]!
	stp	x24, x23, [sp, #16]
	stp	x22, x21, [sp, #32]
	stp	x20, x19, [sp, #48]
	.cfi_def_cfa_offset 64
	.cfi_offset w19, -8
	.cfi_offset w20, -16
	.cfi_offset w21, -24
	.cfi_offset w22, -32
	.cfi_offset w23, -40
	.cfi_offset w24, -48
	.cfi_offset w25, -56
	.cfi_offset w26, -64
.Ltmp2794:
	.loc	1 1090 29 prologue_end
	adrp	x8, global_ebc
	.loc	1 1109 6
	cmp	w5, #3
	.loc	1 1090 29
	ldr	x8, [x8, :lo12:global_ebc]
.Ltmp2795:
	.loc	1 1106 17
	ldp	w9, w10, [x8, #116]
.Ltmp2796:
	.loc	1 1106 23 is_stmt 0
	lsr	w15, w9, #3
.Ltmp2797:
	.loc	1 1109 6 is_stmt 1
	b.eq	.LBB22_3
.Ltmp2798:
	.loc	1 0 6 is_stmt 0
	add	x11, x4, #60
.Ltmp2799:
	.loc	1 1109 6
	cmp	w5, #2
	b.ne	.LBB22_6
.Ltmp2800:
	.loc	1 1111 19 is_stmt 1
	cmp	w10, #0
	mov	w12, wzr
	cinc	w10, w10, lt
.Ltmp2801:
	asr	w10, w10, #1
.Ltmp2802:
	.loc	1 1122 2
	cmp	w12, w10
	b.ge	.LBB22_4
	b	.LBB22_7
.Ltmp2803:
.LBB22_3:
	.loc	1 1113 14
	cmp	w10, #0
	cinc	w11, w10, lt
	asr	w12, w11, #1
.Ltmp2804:
	.loc	1 1114 19
	mul	w11, w12, w15
	.loc	1 1116 20
	mul	w13, w12, w9
	.loc	1 1114 14
	sbfiz	x11, x11, #3, #32
	add	x1, x1, x11
.Ltmp2805:
	.loc	1 1115 14
	add	x2, x2, x11
.Ltmp2806:
	.loc	1 1116 15
	add	x3, x3, x13
.Ltmp2807:
	.loc	1 1117 35
	add	x11, x4, #64
.Ltmp2808:
	.loc	1 1122 2
	cmp	w12, w10
	b.lt	.LBB22_7
.Ltmp2809:
.LBB22_4:
	.loc	1 0 2 is_stmt 0
	mov	w19, wzr
.Ltmp2810:
.LBB22_5:
	.loc	1 1255 21 is_stmt 1
	str	w19, [x11]
	.loc	1 1256 1
	ldp	x20, x19, [sp, #48]
	ldp	x22, x21, [sp, #32]
	ldp	x24, x23, [sp, #16]
	ldp	x26, x25, [sp], #64
	ret
.Ltmp2811:
.LBB22_6:
	.loc	1 0 1 is_stmt 0
	mov	w12, wzr
.Ltmp2812:
	.loc	1 1122 2 is_stmt 1
	cmp	w12, w10
	b.ge	.LBB22_4
.Ltmp2813:
.LBB22_7:
	cmp	w15, #1
	mov	w19, wzr
.Ltmp2814:
	.loc	1 0 0 is_stmt 0
	ldrb	w13, [x4, #56]
.Ltmp2815:
	.loc	1 1122 2
	csinc	w15, w15, wzr, hi
.Ltmp2816:
	.loc	1 0 0
	ldr	w14, [x8, #196]
.Ltmp2817:
	.loc	1 1122 2
	add	x16, x0, #1
	b	.LBB22_10
.Ltmp2818:
.LBB22_8:
	.loc	1 1122 22
	add	x3, x3, x17
	add	x1, x1, x17
	add	x2, x2, x17
.Ltmp2819:
.LBB22_9:
	add	w12, w12, #1
.Ltmp2820:
	.loc	1 1122 2
	cmp	w12, w10
	b.eq	.LBB22_5
.Ltmp2821:
.LBB22_10:
	.loc	1 1123 7 is_stmt 1
	cbz	w14, .LBB22_12
.Ltmp2822:
	.loc	1 1124 39
	ldp	w5, w17, [x8, #116]
.Ltmp2823:
	.loc	1 1124 50 is_stmt 0
	mvn	w0, w12
.Ltmp2824:
	add	w0, w17, w0
.Ltmp2825:
	.loc	1 1128 3 is_stmt 1
	cmp	w9, #8
	b.lo	.LBB22_9
	b	.LBB22_13
.Ltmp2826:
.LBB22_12:
	.loc	1 1126 42
	ldr	w0, [x8, #116]
.Ltmp2827:
	.loc	1 0 42 is_stmt 0
	mov	w5, w12
.Ltmp2828:
	.loc	1 1128 3 is_stmt 1
	cmp	w9, #8
	b.lo	.LBB22_9
.Ltmp2829:
.LBB22_13:
	.loc	1 0 0 is_stmt 0
	mul	w0, w0, w5
.Ltmp2830:
	mov	x17, xzr
	mov	w5, w15
	lsr	w0, w0, #2
.Ltmp2831:
	.loc	1 1128 3
	add	x0, x16, x0
	b	.LBB22_16
.Ltmp2832:
.LBB22_14:
	.loc	1 1247 21 is_stmt 1
	sturh	wzr, [x0, #-1]
.Ltmp2833:
.LBB22_15:
	.loc	1 1128 17
	add	x17, x17, #8
.Ltmp2834:
	add	x0, x0, #2
	subs	w5, w5, #1
.Ltmp2835:
	.loc	1 1128 3 is_stmt 0
	b.eq	.LBB22_8
.Ltmp2836:
.LBB22_16:
	.loc	1 1131 15 is_stmt 1
	ldr	x7, [x1, x17]
.Ltmp2837:
	.loc	1 1132 15
	ldr	x6, [x2, x17]
.Ltmp2838:
	.loc	1 1133 8
	cmp	x7, x6
	b.eq	.LBB22_14
.Ltmp2839:
	.loc	1 1135 24
	eor	x19, x6, x7
.Ltmp2840:
	.loc	1 1136 17
	tst	x19, #0xff
.Ltmp2841:
	.loc	1 1136 9 is_stmt 0
	b.eq	.LBB22_19
.Ltmp2842:
	.loc	1 1137 25 is_stmt 1
	ldrb	w21, [x3, x17]
.Ltmp2843:
	.loc	1 1139 38
	lsl	w22, w6, #2
	.loc	1 1138 20
	ldr	x20, [x4, #120]
	.loc	1 1139 43
	and	x22, x22, #0x3e0
	.loc	1 1139 52 is_stmt 0
	bfxil	x22, x7, #3, #5
	.loc	1 1142 10 is_stmt 1
	mov	x23, x6
	bfxil	x23, x7, #0, #8
	.loc	1 1138 19
	add	x20, x20, x21, lsl #10
.Ltmp2844:
	.loc	1 1141 22
	add	w24, w21, #1
.Ltmp2845:
	.loc	1 1142 10
	cmp	w13, w24, uxtb
	.loc	1 1139 19
	ldrb	w20, [x20, x22]
.Ltmp2846:
	.loc	1 1142 10
	csel	x6, x23, x6, eq
.Ltmp2847:
	csinc	w21, wzr, w21, eq
.Ltmp2848:
	.loc	1 1146 19
	strb	w21, [x3, x17]
	b	.LBB22_20
.Ltmp2849:
.LBB22_19:
	.loc	1 0 19 is_stmt 0
	mov	w20, wzr
.Ltmp2850:
.LBB22_20:
	.loc	1 1149 17 is_stmt 1
	add	x21, x3, x17
	tst	x19, #0xff00
.Ltmp2851:
	.loc	1 1149 9 is_stmt 0
	b.eq	.LBB22_22
.Ltmp2852:
	.loc	1 1150 25 is_stmt 1
	ldrb	w22, [x21, #1]
.Ltmp2853:
	.loc	1 1152 38
	lsr	x23, x6, #6
	.loc	1 1151 20
	ldr	x24, [x4, #120]
	.loc	1 1152 43
	and	x23, x23, #0x3e0
	.loc	1 1152 52 is_stmt 0
	bfxil	x23, x7, #11, #5
	.loc	1 1154 22 is_stmt 1
	add	w25, w22, #1
.Ltmp2854:
	.loc	1 1151 19
	add	x24, x24, x22, lsl #10
.Ltmp2855:
	.loc	1 1155 10
	cmp	w13, w25, uxtb
	mov	x25, x6
.Ltmp2856:
	csinc	w22, wzr, w22, eq
.Ltmp2857:
	.loc	1 1152 19
	ldrb	w23, [x24, x23]
.Ltmp2858:
	.loc	1 1155 10
	lsr	x24, x7, #8
.Ltmp2859:
	.loc	1 1159 19
	strb	w22, [x21, #1]
	.loc	1 1155 10
	bfi	x25, x24, #8, #8
	.loc	1 1153 16
	orr	w20, w20, w23, lsl #2
.Ltmp2860:
	.loc	1 1155 10
	csel	x6, x25, x6, eq
.Ltmp2861:
.LBB22_22:
	.loc	1 1162 17
	tst	x19, #0xff0000
.Ltmp2862:
	.loc	1 1162 9 is_stmt 0
	b.eq	.LBB22_24
.Ltmp2863:
	.loc	1 1163 25 is_stmt 1
	ldrb	w22, [x21, #2]
.Ltmp2864:
	.loc	1 1165 38
	lsr	x23, x6, #14
	.loc	1 1164 20
	ldr	x24, [x4, #120]
	.loc	1 1165 44
	and	x23, x23, #0x3e0
	.loc	1 1165 53 is_stmt 0
	bfxil	x23, x7, #19, #5
	.loc	1 1167 22 is_stmt 1
	add	w25, w22, #1
.Ltmp2865:
	.loc	1 1164 19
	add	x24, x24, x22, lsl #10
.Ltmp2866:
	.loc	1 1168 10
	cmp	w13, w25, uxtb
	mov	x25, x6
.Ltmp2867:
	csinc	w22, wzr, w22, eq
.Ltmp2868:
	.loc	1 1165 19
	ldrb	w23, [x24, x23]
.Ltmp2869:
	.loc	1 1168 10
	lsr	x24, x7, #16
.Ltmp2870:
	.loc	1 1172 19
	strb	w22, [x21, #2]
	.loc	1 1168 10
	bfi	x25, x24, #16, #8
	.loc	1 1166 16
	orr	w20, w20, w23, lsl #4
.Ltmp2871:
	.loc	1 1168 10
	csel	x6, x25, x6, eq
.Ltmp2872:
.LBB22_24:
	.loc	1 1175 17
	add	x21, x3, x17
	tst	x19, #0xff000000
.Ltmp2873:
	.loc	1 1175 9 is_stmt 0
	b.eq	.LBB22_26
.Ltmp2874:
	.loc	1 1176 25 is_stmt 1
	ldrb	w22, [x21, #3]
.Ltmp2875:
	.loc	1 1178 38
	lsr	x23, x6, #22
	.loc	1 1177 20
	ldr	x24, [x4, #120]
	.loc	1 1178 44
	and	x23, x23, #0x3e0
	.loc	1 1178 53 is_stmt 0
	bfxil	x23, x7, #27, #5
	.loc	1 1180 22 is_stmt 1
	add	w25, w22, #1
.Ltmp2876:
	.loc	1 1177 19
	add	x24, x24, x22, lsl #10
.Ltmp2877:
	.loc	1 1181 10
	cmp	w13, w25, uxtb
	mov	x25, x6
.Ltmp2878:
	csinc	w22, wzr, w22, eq
.Ltmp2879:
	.loc	1 1178 19
	ldrb	w23, [x24, x23]
.Ltmp2880:
	.loc	1 1181 10
	lsr	x24, x7, #24
.Ltmp2881:
	.loc	1 1185 19
	strb	w22, [x21, #3]
	.loc	1 1181 10
	bfi	x25, x24, #24, #8
	.loc	1 1179 16
	orr	w20, w20, w23, lsl #6
.Ltmp2882:
	.loc	1 1181 10
	csel	x6, x25, x6, eq
.Ltmp2883:
.LBB22_26:
	.loc	1 1191 17
	tst	x19, #0xff00000000
.Ltmp2884:
	.loc	1 1188 21
	sturb	w20, [x0, #-1]
.Ltmp2885:
	.loc	1 1191 9
	b.eq	.LBB22_28
.Ltmp2886:
	.loc	1 1192 25
	ldrb	w22, [x21, #4]
.Ltmp2887:
	.loc	1 1194 38
	lsr	x20, x6, #30
	.loc	1 1193 20
	ldr	x23, [x4, #120]
	.loc	1 1194 44
	and	x20, x20, #0x3e0
	.loc	1 1194 53 is_stmt 0
	bfxil	x20, x7, #35, #5
	.loc	1 1197 10 is_stmt 1
	lsr	x24, x7, #32
	mov	x25, x6
	.loc	1 1196 22
	add	w26, w22, #1
.Ltmp2888:
	.loc	1 1193 19
	add	x23, x23, x22, lsl #10
.Ltmp2889:
	.loc	1 1197 10
	cmp	w13, w26, uxtb
	bfi	x25, x24, #32, #8
	csinc	w22, wzr, w22, eq
.Ltmp2890:
	.loc	1 1194 19
	ldrb	w20, [x23, x20]
.Ltmp2891:
	.loc	1 1197 10
	csel	x6, x25, x6, eq
.Ltmp2892:
	.loc	1 1201 19
	strb	w22, [x21, #4]
	b	.LBB22_29
.Ltmp2893:
.LBB22_28:
	.loc	1 0 19 is_stmt 0
	mov	w20, wzr
.Ltmp2894:
.LBB22_29:
	.loc	1 1204 17 is_stmt 1
	add	x21, x3, x17
	tst	x19, #0xff0000000000
.Ltmp2895:
	.loc	1 1204 9 is_stmt 0
	b.eq	.LBB22_31
.Ltmp2896:
	.loc	1 1205 25 is_stmt 1
	ldrb	w22, [x21, #5]
.Ltmp2897:
	.loc	1 1207 38
	lsr	x23, x6, #38
	.loc	1 1206 20
	ldr	x24, [x4, #120]
	.loc	1 1207 44
	and	x23, x23, #0x3e0
	.loc	1 1207 53 is_stmt 0
	bfxil	x23, x7, #43, #5
	.loc	1 1209 22 is_stmt 1
	add	w25, w22, #1
.Ltmp2898:
	.loc	1 1206 19
	add	x24, x24, x22, lsl #10
.Ltmp2899:
	.loc	1 1210 10
	cmp	w13, w25, uxtb
	mov	x25, x6
.Ltmp2900:
	csinc	w22, wzr, w22, eq
.Ltmp2901:
	.loc	1 1207 19
	ldrb	w23, [x24, x23]
.Ltmp2902:
	.loc	1 1210 10
	lsr	x24, x7, #40
.Ltmp2903:
	.loc	1 1214 19
	strb	w22, [x21, #5]
	.loc	1 1210 10
	bfi	x25, x24, #40, #8
	.loc	1 1208 16
	orr	w20, w20, w23, lsl #2
.Ltmp2904:
	.loc	1 1210 10
	csel	x6, x25, x6, eq
.Ltmp2905:
.LBB22_31:
	.loc	1 1217 17
	tst	x19, #0xff000000000000
.Ltmp2906:
	.loc	1 1217 9 is_stmt 0
	b.eq	.LBB22_33
.Ltmp2907:
	.loc	1 1218 25 is_stmt 1
	ldrb	w22, [x21, #6]
.Ltmp2908:
	.loc	1 1220 38
	lsr	x23, x6, #46
	.loc	1 1219 20
	ldr	x24, [x4, #120]
	.loc	1 1220 44
	and	x23, x23, #0x3e0
	.loc	1 1220 53 is_stmt 0
	bfxil	x23, x7, #51, #5
	.loc	1 1222 22 is_stmt 1
	add	w25, w22, #1
.Ltmp2909:
	.loc	1 1219 19
	add	x24, x24, x22, lsl #10
.Ltmp2910:
	.loc	1 1223 10
	cmp	w13, w25, uxtb
	mov	x25, x6
.Ltmp2911:
	csinc	w22, wzr, w22, eq
.Ltmp2912:
	.loc	1 1220 19
	ldrb	w23, [x24, x23]
.Ltmp2913:
	.loc	1 1223 10
	lsr	x24, x7, #48
.Ltmp2914:
	.loc	1 1227 19
	strb	w22, [x21, #6]
	.loc	1 1223 10
	bfi	x25, x24, #48, #8
	.loc	1 1221 16
	orr	w20, w20, w23, lsl #4
.Ltmp2915:
	.loc	1 1223 10
	csel	x6, x25, x6, eq
.Ltmp2916:
.LBB22_33:
	.loc	1 1230 9
	lsr	x19, x19, #56
.Ltmp2917:
	cbz	x19, .LBB22_35
.Ltmp2918:
	.loc	1 0 0 is_stmt 0
	add	x19, x3, x17
.Ltmp2919:
	.loc	1 1232 20 is_stmt 1
	ldr	x22, [x4, #120]
	.loc	1 1233 38
	lsr	x23, x6, #54
	.loc	1 1233 44 is_stmt 0
	and	x23, x23, #0x3e0
	.loc	1 1231 25 is_stmt 1
	ldrb	w21, [x19, #7]
.Ltmp2920:
	.loc	1 1233 53
	bfxil	x23, x7, #59, #5
	.loc	1 1236 10
	bfxil	x7, x6, #0, #56
.Ltmp2921:
	.loc	1 1232 19
	add	x22, x22, x21, lsl #10
.Ltmp2922:
	.loc	1 1233 19
	ldrb	w22, [x22, x23]
.Ltmp2923:
	.loc	1 1235 22
	add	w23, w21, #1
.Ltmp2924:
	.loc	1 1236 10
	cmp	w13, w23, uxtb
	csinc	w21, wzr, w21, eq
.Ltmp2925:
	csel	x6, x7, x6, eq
.Ltmp2926:
	.loc	1 1234 16
	orr	w20, w20, w22, lsl #6
.Ltmp2927:
	.loc	1 1240 19
	strb	w21, [x19, #7]
.Ltmp2928:
.LBB22_35:
	.loc	1 0 19 is_stmt 0
	mov	w19, #1
	.loc	1 1243 17 is_stmt 1
	str	x6, [x2, x17]
.Ltmp2929:
	.loc	1 1244 21
	strb	w20, [x0]
	b	.LBB22_15
.Ltmp2930:
.Lfunc_end22:
	.size	get_auto_image, .Lfunc_end22-get_auto_image
	.cfi_endproc

	.p2align	2
	.type	direct_mode_data_change_part2,@function
direct_mode_data_change_part2:
.Lfunc_begin23:
	.loc	1 1567 0
	.cfi_startproc
	sub	sp, sp, #112
	str	x30, [x18], #8
	.cfi_escape 0x16, 0x12, 0x02, 0x82, 0x78
	stp	x29, x30, [sp, #16]
	add	x29, sp, #16
	stp	x28, x27, [sp, #32]
	stp	x26, x25, [sp, #48]
	stp	x24, x23, [sp, #64]
	stp	x22, x21, [sp, #80]
	stp	x20, x19, [sp, #96]
	.cfi_def_cfa w29, 96
	.cfi_offset w19, -8
	.cfi_offset w20, -16
	.cfi_offset w21, -24
	.cfi_offset w22, -32
	.cfi_offset w23, -40
	.cfi_offset w24, -48
	.cfi_offset w25, -56
	.cfi_offset w26, -64
	.cfi_offset w27, -72
	.cfi_offset w28, -80
	.cfi_offset w30, -88
	.cfi_offset w29, -96
.Ltmp2931:
	.loc	1 1568 29 prologue_end
	adrp	x8, global_ebc
	mov	x19, x2
.Ltmp2932:
	.loc	1 0 29 is_stmt 0
	mov	x20, x1
.Ltmp2933:
	.loc	1 1580 6 is_stmt 1
	cmp	w4, #3
	str	x0, [sp, #8]
.Ltmp2934:
	.loc	1 1568 29
	ldr	x8, [x8, :lo12:global_ebc]
.Ltmp2935:
	.loc	1 1577 17
	ldp	w22, w23, [x8, #116]
.Ltmp2936:
	.loc	1 1577 23 is_stmt 0
	lsr	w9, w22, #3
.Ltmp2937:
	.loc	1 0 23
	str	w9, [sp, #4]
	.loc	1 1580 6 is_stmt 1
	b.eq	.LBB23_3
.Ltmp2938:
	cmp	w4, #2
	b.ne	.LBB23_4
.Ltmp2939:
	.loc	1 1582 19
	cmp	w23, #0
	mov	w24, wzr
	cinc	w8, w23, lt
.Ltmp2940:
	asr	w23, w8, #1
.Ltmp2941:
	.loc	1 0 19 is_stmt 0
	b	.LBB23_5
.Ltmp2942:
.LBB23_3:
	.loc	1 1584 14 is_stmt 1
	cmp	w23, #0
	cinc	w8, w23, lt
.Ltmp2943:
	asr	w24, w8, #1
.Ltmp2944:
	.loc	1 1585 19
	mul	w8, w24, w9
	.loc	1 1585 14 is_stmt 0
	sbfiz	x8, x8, #3, #32
	add	x20, x20, x8
.Ltmp2945:
	.loc	1 1586 14 is_stmt 1
	add	x19, x19, x8
.Ltmp2946:
	.loc	1 0 14 is_stmt 0
	b	.LBB23_5
.Ltmp2947:
.LBB23_4:
	mov	w24, wzr
.Ltmp2948:
.LBB23_5:
	.loc	1 1591 27 is_stmt 1
	lsr	w27, w22, #2
.Ltmp2949:
	.loc	1 1592 58
	subs	w8, w23, w24
	ldr	x9, [sp, #8]
.Ltmp2950:
	.loc	1 1592 2 is_stmt 0
	mov	w1, wzr
	.loc	1 1592 22
	mul	w25, w24, w27
	.loc	1 0 0
	ldrb	w26, [x3, #56]
	.loc	1 1592 48
	mul	w8, w8, w27
	.loc	1 0 0
	ldr	w21, [x3, #72]
.Ltmp2951:
	ldr	x28, [x3, #120]
.Ltmp2952:
	.loc	1 1592 18
	add	x0, x9, w25, sxtw
	.loc	1 1592 38
	sxtw	x2, w8
	.loc	1 1592 2
	bl	memset
.Ltmp2953:
	.loc	1 1592 58
	cmp	w23, w24
.Ltmp2954:
	.loc	1 1593 2 is_stmt 1
	b.le	.LBB23_25
.Ltmp2955:
	.loc	1 0 2 is_stmt 0
	ldr	w9, [sp, #4]
	sub	w8, w26, w21
.Ltmp2956:
	lsl	w11, w8, #10
.Ltmp2957:
	.loc	1 1593 2
	lsl	w8, w27, #1
.Ltmp2958:
	.loc	1 0 2
	mov	w12, #12
	mov	w13, #3
	.loc	1 1593 2
	cmp	w9, #1
.Ltmp2959:
	.loc	1 0 0
	add	x11, x28, w11, sxtw
.Ltmp2960:
	.loc	1 1593 2
	csinc	w9, w9, wzr, hi
	lsl	x10, x9, #3
	b	.LBB23_9
.Ltmp2961:
.LBB23_7:
	.loc	1 1593 23
	add	x20, x20, x15
	add	x19, x19, x15
.Ltmp2962:
.LBB23_8:
	add	w24, w24, #2
.Ltmp2963:
	.loc	1 1593 2
	add	w25, w25, w8
	cmp	w24, w23
	b.ge	.LBB23_25
.Ltmp2964:
.LBB23_9:
	.loc	1 1595 3 is_stmt 1
	cmp	w22, #8
	b.lo	.LBB23_8
.Ltmp2965:
	.loc	1 0 3 is_stmt 0
	ldr	x14, [sp, #8]
	mov	x15, x9
	add	x14, x14, w25, sxtw
	mov	x16, x14
	b	.LBB23_14
.Ltmp2966:
.LBB23_11:
	.loc	1 366 6 is_stmt 1
	tst	x0, #0xff
.Ltmp2967:
	.loc	1 309 25
	lsr	x7, x1, #22
.Ltmp2968:
	.loc	1 366 6
	csel	w3, wzr, w13, eq
.Ltmp2969:
	.loc	1 368 6
	tst	x0, #0xff00
	orr	w4, w3, #0x30
.Ltmp2970:
	.loc	1 309 31
	and	x7, x7, #0x3e0
.Ltmp2971:
	.loc	1 368 6
	csel	w3, w3, w4, eq
.Ltmp2972:
	.loc	1 370 6
	tst	x0, #0xff0000
	orr	w4, w3, #0x300
.Ltmp2973:
	.loc	1 306 32
	lsl	w2, w1, #2
.Ltmp2974:
	.loc	1 370 6
	csel	w3, w3, w4, eq
.Ltmp2975:
	.loc	1 372 6
	tst	x0, #0xff000000
	orr	w4, w3, #0x3000
.Ltmp2976:
	.loc	1 307 25
	lsr	x5, x1, #6
.Ltmp2977:
	.loc	1 372 6
	csel	w3, w3, w4, eq
.Ltmp2978:
	.loc	1 374 6
	tst	x0, #0xff00000000
	orr	w4, w3, #0x30000
.Ltmp2979:
	.loc	1 309 40
	bfxil	x7, x17, #27, #5
.Ltmp2980:
	.loc	1 374 6
	csel	w3, w3, w4, eq
.Ltmp2981:
	.loc	1 376 6
	tst	x0, #0xff0000000000
	orr	w4, w3, #0x300000
.Ltmp2982:
	.loc	1 306 37
	and	x2, x2, #0x3e0
	.loc	1 307 30
	and	x5, x5, #0x3e0
	.loc	1 308 25
	lsr	x6, x1, #14
.Ltmp2983:
	.loc	1 376 6
	csel	w3, w3, w4, eq
.Ltmp2984:
	.loc	1 306 46
	bfxil	x2, x17, #3, #5
	.loc	1 307 39
	bfxil	x5, x17, #11, #5
	.loc	1 308 31
	and	x4, x6, #0x3e0
.Ltmp2985:
	.loc	1 378 6
	orr	w6, w3, #0x3000000
	tst	x0, #0xff000000000000
.Ltmp2986:
	.loc	1 308 40
	bfxil	x4, x17, #19, #5
.Ltmp2987:
	.loc	1 378 6
	csel	w3, w3, w6, eq
.Ltmp2988:
	.loc	1 309 6
	ldrb	w6, [x11, x7]
	.loc	1 310 25
	lsr	x7, x1, #30
	.loc	1 310 31 is_stmt 0
	and	x7, x7, #0x3e0
	.loc	1 311 25 is_stmt 1
	lsr	x21, x1, #38
	.loc	1 306 13
	ldrb	w2, [x11, x2]
	.loc	1 310 40
	bfxil	x7, x17, #35, #5
	.loc	1 307 6
	ldrb	w5, [x11, x5]
	.loc	1 311 31
	and	x21, x21, #0x3e0
	.loc	1 312 25
	lsr	x26, x1, #46
	.loc	1 308 6
	ldrb	w4, [x11, x4]
	.loc	1 311 40
	bfxil	x21, x17, #43, #5
	.loc	1 312 31
	and	x26, x26, #0x3e0
	.loc	1 313 25
	lsr	x1, x1, #54
.Ltmp2989:
	.loc	1 312 40
	bfxil	x26, x17, #51, #5
	.loc	1 313 31
	and	x1, x1, #0x3e0
	.loc	1 307 4
	orr	w2, w2, w5, lsl #4
	.loc	1 313 40
	bfxil	x1, x17, #59, #5
	.loc	1 310 6
	ldrb	w17, [x11, x7]
.Ltmp2990:
	.loc	1 311 6
	ldrb	w5, [x11, x21]
	.loc	1 308 4
	orr	w2, w2, w4, lsl #8
	.loc	1 312 6
	ldrb	w4, [x11, x26]
	.loc	1 309 4
	orr	w2, w2, w6, lsl #12
	.loc	1 313 6
	ldrb	w1, [x11, x1]
.Ltmp2991:
	.loc	1 380 6
	lsr	x0, x0, #56
.Ltmp2992:
	.loc	1 310 4
	orr	w17, w2, w17, lsl #16
.Ltmp2993:
	.loc	1 380 6
	cmp	x0, #0
.Ltmp2994:
	.loc	1 311 4
	orr	w17, w17, w5, lsl #20
.Ltmp2995:
	.loc	1 380 6
	orr	w0, w3, #0x30000000
.Ltmp2996:
	.loc	1 312 4
	orr	w17, w17, w4, lsl #24
.Ltmp2997:
	.loc	1 380 6
	csel	w0, w3, w0, eq
.Ltmp2998:
	.loc	1 313 4
	orr	w17, w17, w1, lsl #28
.Ltmp2999:
	.loc	1 383 10
	and	w17, w17, w0
.Ltmp3000:
.LBB23_12:
	.loc	1 1599 29
	str	w17, [x16]
.Ltmp3001:
.LBB23_13:
	.loc	1 1595 17
	add	x16, x16, #4
	subs	x15, x15, #1
.Ltmp3002:
	.loc	1 1595 3 is_stmt 0
	b.eq	.LBB23_17
.Ltmp3003:
.LBB23_14:
	.loc	1 1596 15 is_stmt 1
	ldr	x17, [x20], #8
.Ltmp3004:
	.loc	1 1597 15
	ldr	x1, [x19], #8
.Ltmp3005:
	.loc	1 1598 8
	cmp	x17, x1
	b.eq	.LBB23_13
.Ltmp3006:
	.loc	1 361 25
	eor	x0, x1, x17
.Ltmp3007:
	.loc	1 363 6
	cbnz	x0, .LBB23_11
.Ltmp3008:
	.loc	1 0 6 is_stmt 0
	mov	w17, wzr
.Ltmp3009:
	b	.LBB23_12
.Ltmp3010:
.LBB23_17:
	.loc	1 1602 3 is_stmt 1
	cmp	w22, #8
	b.lo	.LBB23_8
.Ltmp3011:
	.loc	1 0 3 is_stmt 0
	mov	x15, xzr
	b	.LBB23_22
.Ltmp3012:
.LBB23_19:
	.loc	1 396 6 is_stmt 1
	tst	x17, #0xff
.Ltmp3013:
	.loc	1 319 25
	lsr	x2, x0, #6
.Ltmp3014:
	.loc	1 396 6
	csel	w3, wzr, w12, eq
.Ltmp3015:
	.loc	1 398 6
	tst	x17, #0xff00
	orr	w4, w3, #0xc0
.Ltmp3016:
	.loc	1 318 32
	lsl	w1, w0, #2
.Ltmp3017:
	.loc	1 398 6
	csel	w3, w3, w4, eq
.Ltmp3018:
	.loc	1 400 6
	tst	x17, #0xff0000
	orr	w4, w3, #0xc00
.Ltmp3019:
	.loc	1 319 30
	and	x2, x2, #0x3e0
.Ltmp3020:
	.loc	1 400 6
	csel	w3, w3, w4, eq
.Ltmp3021:
	.loc	1 402 6
	tst	x17, #0xff000000
	orr	w4, w3, #0xc000
.Ltmp3022:
	.loc	1 320 25
	lsr	x5, x0, #14
.Ltmp3023:
	.loc	1 402 6
	csel	w3, w3, w4, eq
.Ltmp3024:
	.loc	1 404 6
	tst	x17, #0xff00000000
	orr	w4, w3, #0xc0000
.Ltmp3025:
	.loc	1 318 37
	and	x1, x1, #0x3e0
.Ltmp3026:
	.loc	1 404 6
	csel	w3, w3, w4, eq
.Ltmp3027:
	.loc	1 406 6
	tst	x17, #0xff0000000000
	orr	w4, w3, #0xc00000
.Ltmp3028:
	.loc	1 319 39
	bfxil	x2, x16, #11, #5
.Ltmp3029:
	.loc	1 406 6
	csel	w3, w3, w4, eq
.Ltmp3030:
	.loc	1 408 6
	tst	x17, #0xff000000000000
	orr	w4, w3, #0xc000000
.Ltmp3031:
	.loc	1 320 31
	and	x5, x5, #0x3e0
	.loc	1 318 46
	bfxil	x1, x16, #3, #5
.Ltmp3032:
	.loc	1 408 6
	csel	w3, w3, w4, eq
.Ltmp3033:
	.loc	1 321 25
	lsr	x4, x0, #22
	.loc	1 320 40
	bfxil	x5, x16, #19, #5
	.loc	1 321 31
	and	x4, x4, #0x3e0
	.loc	1 322 25
	lsr	x6, x0, #30
	.loc	1 319 6
	ldrb	w2, [x11, x2]
	.loc	1 321 40
	bfxil	x4, x16, #27, #5
	.loc	1 322 31
	and	x6, x6, #0x3e0
	.loc	1 323 25
	lsr	x7, x0, #38
	.loc	1 318 13
	ldrb	w1, [x11, x1]
	.loc	1 322 40
	bfxil	x6, x16, #35, #5
	.loc	1 323 31
	and	x7, x7, #0x3e0
	.loc	1 324 25
	lsr	x21, x0, #46
	.loc	1 325 25
	lsr	x0, x0, #54
.Ltmp3034:
	.loc	1 320 6
	ldrb	w5, [x11, x5]
	.loc	1 323 40
	bfxil	x7, x16, #43, #5
	.loc	1 324 31
	and	x21, x21, #0x3e0
	.loc	1 325 31
	and	x0, x0, #0x3e0
	.loc	1 324 40
	bfxil	x21, x16, #51, #5
	.loc	1 325 40
	bfxil	x0, x16, #59, #5
	.loc	1 321 6
	ldrb	w16, [x11, x4]
.Ltmp3035:
	.loc	1 319 66
	lsl	w2, w2, #6
	.loc	1 322 6
	ldrb	w4, [x11, x6]
	.loc	1 319 4
	orr	w1, w2, w1, lsl #2
	.loc	1 323 6
	ldrb	w2, [x11, x7]
	.loc	1 320 4
	orr	w1, w1, w5, lsl #10
	.loc	1 324 6
	ldrb	w5, [x11, x21]
	.loc	1 321 4
	orr	w16, w1, w16, lsl #14
	.loc	1 325 6
	ldrb	w0, [x11, x0]
	.loc	1 322 4
	orr	w16, w16, w4, lsl #18
.Ltmp3036:
	.loc	1 410 6
	lsr	x17, x17, #56
.Ltmp3037:
	.loc	1 323 4
	orr	w16, w16, w2, lsl #22
.Ltmp3038:
	.loc	1 410 6
	cmp	x17, #0
	orr	w17, w3, #0xc0000000
.Ltmp3039:
	.loc	1 324 4
	orr	w16, w16, w5, lsl #26
.Ltmp3040:
	.loc	1 410 6
	csel	w17, w3, w17, eq
.Ltmp3041:
	.loc	1 325 4
	orr	w16, w16, w0, lsl #30
.Ltmp3042:
	.loc	1 413 10
	and	w16, w16, w17
.Ltmp3043:
.LBB23_20:
	.loc	1 1606 29
	ldr	w17, [x14]
	orr	w16, w17, w16
	str	w16, [x14]
.Ltmp3044:
.LBB23_21:
	.loc	1 1602 17
	add	x14, x14, #4
	add	x15, x15, #8
.Ltmp3045:
	.loc	1 1602 3 is_stmt 0
	cmp	x10, x15
	b.eq	.LBB23_7
.Ltmp3046:
.LBB23_22:
	.loc	1 1603 15 is_stmt 1
	ldr	x16, [x20, x15]
.Ltmp3047:
	.loc	1 1604 15
	ldr	x0, [x19, x15]
.Ltmp3048:
	.loc	1 1605 8
	cmp	x16, x0
	b.eq	.LBB23_21
.Ltmp3049:
	.loc	1 391 25
	eor	x17, x0, x16
.Ltmp3050:
	.loc	1 393 6
	cbnz	x17, .LBB23_19
.Ltmp3051:
	.loc	1 0 6 is_stmt 0
	mov	w16, wzr
.Ltmp3052:
	b	.LBB23_20
.Ltmp3053:
.LBB23_25:
	.loc	1 1610 1 is_stmt 1
	ldp	x20, x19, [sp, #96]
.Ltmp3054:
	ldp	x22, x21, [sp, #80]
	ldp	x24, x23, [sp, #64]
.Ltmp3055:
	ldp	x26, x25, [sp, #48]
	ldp	x28, x27, [sp, #32]
.Ltmp3056:
	ldp	x29, x30, [sp, #16]
	ldr	x30, [x18, #-8]!
	add	sp, sp, #112
.Ltmp3057:
	ret
.Ltmp3058:
.Lfunc_end23:
	.size	direct_mode_data_change_part2, .Lfunc_end23-direct_mode_data_change_part2
	.cfi_endproc

	.p2align	2
	.type	direct_mode_data_change_part,@function
direct_mode_data_change_part:
.Lfunc_begin24:
	.loc	1 1479 0
	.cfi_startproc
	sub	sp, sp, #112
	str	x30, [x18], #8
	.cfi_escape 0x16, 0x12, 0x02, 0x82, 0x78
	stp	x29, x30, [sp, #16]
	add	x29, sp, #16
	stp	x28, x27, [sp, #32]
	stp	x26, x25, [sp, #48]
	stp	x24, x23, [sp, #64]
	stp	x22, x21, [sp, #80]
	stp	x20, x19, [sp, #96]
	.cfi_def_cfa w29, 96
	.cfi_offset w19, -8
	.cfi_offset w20, -16
	.cfi_offset w21, -24
	.cfi_offset w22, -32
	.cfi_offset w23, -40
	.cfi_offset w24, -48
	.cfi_offset w25, -56
	.cfi_offset w26, -64
	.cfi_offset w27, -72
	.cfi_offset w28, -80
	.cfi_offset w30, -88
	.cfi_offset w29, -96
.Ltmp3059:
	.loc	1 1480 29 prologue_end
	adrp	x8, global_ebc
	mov	x19, x2
.Ltmp3060:
	.loc	1 0 29 is_stmt 0
	mov	x20, x1
.Ltmp3061:
	mov	x21, x0
.Ltmp3062:
	.loc	1 1491 6 is_stmt 1
	cmp	w4, #3
	.loc	1 1480 29
	ldr	x26, [x8, :lo12:global_ebc]
.Ltmp3063:
	.loc	1 1488 17
	ldp	w22, w8, [x26, #116]
.Ltmp3064:
	.loc	1 1488 23 is_stmt 0
	lsr	w10, w22, #3
.Ltmp3065:
	.loc	1 0 23
	stur	w10, [x29, #-4]
	.loc	1 1491 6 is_stmt 1
	b.eq	.LBB24_3
.Ltmp3066:
	cmp	w4, #2
	b.ne	.LBB24_4
.Ltmp3067:
	.loc	1 1493 19
	cmp	w8, #0
	mov	w23, wzr
	cinc	w9, w8, lt
	asr	w24, w9, #1
.Ltmp3068:
	.loc	1 0 19 is_stmt 0
	b	.LBB24_6
.Ltmp3069:
.LBB24_3:
	.loc	1 1495 14 is_stmt 1
	cmp	w8, #0
	cinc	w9, w8, lt
	asr	w23, w9, #1
.Ltmp3070:
	.loc	1 1496 19
	mul	w9, w23, w10
	.loc	1 1496 14 is_stmt 0
	sbfiz	x9, x9, #3, #32
	add	x20, x20, x9
.Ltmp3071:
	.loc	1 1497 14 is_stmt 1
	add	x19, x19, x9
.Ltmp3072:
	.loc	1 0 14 is_stmt 0
	b	.LBB24_5
.Ltmp3073:
.LBB24_4:
	mov	w23, wzr
.Ltmp3074:
.LBB24_5:
	mov	w24, w8
.Ltmp3075:
.LBB24_6:
	ldrb	w28, [x3, #56]
	.loc	1 1502 27 is_stmt 1
	lsr	w25, w22, #2
.Ltmp3076:
	.loc	1 0 0 is_stmt 0
	ldr	w27, [x3, #72]
.Ltmp3077:
	.loc	1 1503 13 is_stmt 1
	ldr	w9, [x26, #196]
.Ltmp3078:
	.loc	1 0 0 is_stmt 0
	ldr	x10, [x3, #120]
.Ltmp3079:
	str	x10, [sp]
	.loc	1 1503 6
	cbz	w9, .LBB24_8
.Ltmp3080:
	.loc	1 1504 37 is_stmt 1
	sub	w8, w8, w24
	.loc	1 1504 84 is_stmt 0
	sub	w9, w24, w23
	.loc	1 1504 3
	mov	w1, wzr
	.loc	1 1504 47
	mul	w8, w8, w25
	.loc	1 1504 74
	mul	w9, w9, w25
	.loc	1 1504 19
	add	x0, x21, x8
	.loc	1 1504 64
	sxtw	x2, w9
	.loc	1 1504 3
	bl	memset
.Ltmp3081:
	.loc	1 1505 23 is_stmt 1
	ldr	w8, [x26, #120]
	.loc	1 1505 34 is_stmt 0
	mvn	w9, w23
	add	w8, w8, w9
	.loc	1 1505 39
	mul	w8, w8, w25
	.loc	1 1506 17 is_stmt 1
	neg	w25, w25
.Ltmp3082:
	.loc	1 1505 12
	add	x21, x21, x8
.Ltmp3083:
	.loc	1 1512 2
	cmp	w24, w23
	b.gt	.LBB24_9
	b	.LBB24_19
.Ltmp3084:
.LBB24_8:
	.loc	1 1509 43
	sub	w8, w24, w23
	.loc	1 1508 17
	mul	w9, w23, w25
	.loc	1 1509 3
	mov	w1, wzr
	.loc	1 1509 33 is_stmt 0
	mul	w8, w8, w25
	.loc	1 1508 12 is_stmt 1
	add	x21, x21, w9, sxtw
.Ltmp3085:
	.loc	1 1509 23
	sxtw	x2, w8
	.loc	1 1509 3 is_stmt 0
	mov	x0, x21
	bl	memset
.Ltmp3086:
	.loc	1 1512 2 is_stmt 1
	cmp	w24, w23
	b.le	.LBB24_19
.Ltmp3087:
.LBB24_9:
	.loc	1 0 2 is_stmt 0
	ldur	w10, [x29, #-4]
	sub	w8, w28, w27
.Ltmp3088:
	ldr	x11, [sp]
	lsl	w9, w8, #10
	sxtw	x8, w25
.Ltmp3089:
	.loc	1 1512 2
	cmp	w10, #1
	csinc	w10, w10, wzr, hi
	add	x9, x11, w9, sxtw
.Ltmp3090:
	lsl	x10, x10, #1
	mov	w11, #3
	b	.LBB24_11
.Ltmp3091:
.LBB24_10:
	.loc	1 1512 22
	add	w23, w23, #1
.Ltmp3092:
	.loc	1 1512 35
	add	x21, x21, x8
.Ltmp3093:
	.loc	1 1512 2
	cmp	w23, w24
	b.eq	.LBB24_19
.Ltmp3094:
.LBB24_11:
	.loc	1 1513 3 is_stmt 1
	cmp	w22, #8
	b.lo	.LBB24_10
.Ltmp3095:
	.loc	1 0 3 is_stmt 0
	mov	x12, xzr
	b	.LBB24_16
.Ltmp3096:
.LBB24_13:
	.loc	1 336 6 is_stmt 1
	tst	x14, #0xff
.Ltmp3097:
	.loc	1 297 25
	lsr	x3, x15, #22
.Ltmp3098:
	.loc	1 336 6
	csel	w17, wzr, w11, eq
.Ltmp3099:
	.loc	1 338 6
	tst	x14, #0xff00
	orr	w0, w17, #0xc
.Ltmp3100:
	.loc	1 297 31
	and	x3, x3, #0x3e0
.Ltmp3101:
	.loc	1 338 6
	csel	w17, w17, w0, eq
.Ltmp3102:
	.loc	1 340 6
	tst	x14, #0xff0000
	orr	w0, w17, #0x30
.Ltmp3103:
	.loc	1 294 32
	lsl	w16, w15, #2
.Ltmp3104:
	.loc	1 340 6
	csel	w17, w17, w0, eq
.Ltmp3105:
	.loc	1 342 6
	tst	x14, #0xff000000
	orr	w0, w17, #0xc0
.Ltmp3106:
	.loc	1 295 25
	lsr	x1, x15, #6
.Ltmp3107:
	.loc	1 342 6
	csel	w17, w17, w0, eq
.Ltmp3108:
	.loc	1 344 6
	tst	x14, #0xff00000000
	orr	w0, w17, #0x300
.Ltmp3109:
	.loc	1 297 40
	bfxil	x3, x13, #27, #5
.Ltmp3110:
	.loc	1 344 6
	csel	w17, w17, w0, eq
.Ltmp3111:
	.loc	1 346 6
	tst	x14, #0xff0000000000
	orr	w0, w17, #0xc00
.Ltmp3112:
	.loc	1 294 37
	and	x16, x16, #0x3e0
	.loc	1 295 30
	and	x1, x1, #0x3e0
	.loc	1 296 25
	lsr	x2, x15, #14
.Ltmp3113:
	.loc	1 346 6
	csel	w17, w17, w0, eq
.Ltmp3114:
	.loc	1 294 46
	bfxil	x16, x13, #3, #5
	.loc	1 295 39
	bfxil	x1, x13, #11, #5
	.loc	1 296 31
	and	x0, x2, #0x3e0
.Ltmp3115:
	.loc	1 348 6
	orr	w2, w17, #0x3000
	tst	x14, #0xff000000000000
.Ltmp3116:
	.loc	1 296 40
	bfxil	x0, x13, #19, #5
.Ltmp3117:
	.loc	1 348 6
	csel	w17, w17, w2, eq
.Ltmp3118:
	.loc	1 297 6
	ldrb	w2, [x9, x3]
	.loc	1 298 25
	lsr	x3, x15, #30
	.loc	1 298 31 is_stmt 0
	and	x3, x3, #0x3e0
	.loc	1 299 25 is_stmt 1
	lsr	x4, x15, #38
	.loc	1 294 13
	ldrb	w16, [x9, x16]
	.loc	1 298 40
	bfxil	x3, x13, #35, #5
	.loc	1 295 6
	ldrb	w1, [x9, x1]
	.loc	1 299 31
	and	x4, x4, #0x3e0
	.loc	1 300 25
	lsr	x5, x15, #46
	.loc	1 296 6
	ldrb	w0, [x9, x0]
	.loc	1 299 40
	bfxil	x4, x13, #43, #5
	.loc	1 300 31
	and	x5, x5, #0x3e0
	.loc	1 301 25
	lsr	x15, x15, #54
.Ltmp3119:
	.loc	1 300 40
	bfxil	x5, x13, #51, #5
	.loc	1 301 31
	and	x15, x15, #0x3e0
	.loc	1 295 4
	orr	w16, w16, w1, lsl #2
	.loc	1 301 40
	bfxil	x15, x13, #59, #5
	.loc	1 298 6
	ldrb	w13, [x9, x3]
.Ltmp3120:
	.loc	1 299 6
	ldrb	w1, [x9, x4]
	.loc	1 296 4
	orr	w16, w16, w0, lsl #4
	.loc	1 300 6
	ldrb	w0, [x9, x5]
	.loc	1 297 4
	orr	w16, w16, w2, lsl #6
	.loc	1 301 6
	ldrb	w15, [x9, x15]
.Ltmp3121:
	.loc	1 350 14
	lsr	x14, x14, #56
.Ltmp3122:
	.loc	1 298 4
	orr	w13, w16, w13, lsl #8
.Ltmp3123:
	.loc	1 350 6
	cmp	x14, #0
.Ltmp3124:
	.loc	1 299 4
	orr	w13, w13, w1, lsl #10
.Ltmp3125:
	.loc	1 350 6
	orr	w14, w17, #0xffffc000
.Ltmp3126:
	.loc	1 300 4
	orr	w13, w13, w0, lsl #12
.Ltmp3127:
	.loc	1 350 6
	csel	w14, w17, w14, eq
.Ltmp3128:
	.loc	1 301 4
	orr	w13, w13, w15, lsl #14
.Ltmp3129:
	.loc	1 353 10
	and	w13, w13, w14
.Ltmp3130:
.LBB24_14:
	.loc	1 1517 25
	strh	w13, [x21, x12]
.Ltmp3131:
.LBB24_15:
	.loc	1 1513 17
	add	x12, x12, #2
.Ltmp3132:
	.loc	1 1513 3 is_stmt 0
	cmp	x10, x12
	b.eq	.LBB24_10
.Ltmp3133:
.LBB24_16:
	.loc	1 1514 15 is_stmt 1
	ldr	x13, [x20], #8
.Ltmp3134:
	.loc	1 1515 15
	ldr	x15, [x19], #8
.Ltmp3135:
	.loc	1 1516 8
	cmp	x13, x15
	b.eq	.LBB24_15
.Ltmp3136:
	.loc	1 331 25
	eor	x14, x15, x13
.Ltmp3137:
	.loc	1 333 6
	cbnz	x14, .LBB24_13
.Ltmp3138:
	.loc	1 0 6 is_stmt 0
	mov	w13, wzr
.Ltmp3139:
	b	.LBB24_14
.Ltmp3140:
.LBB24_19:
	.loc	1 1521 1 is_stmt 1
	ldp	x20, x19, [sp, #96]
.Ltmp3141:
	ldp	x22, x21, [sp, #80]
.Ltmp3142:
	ldp	x24, x23, [sp, #64]
.Ltmp3143:
	ldp	x26, x25, [sp, #48]
.Ltmp3144:
	ldp	x28, x27, [sp, #32]
	ldp	x29, x30, [sp, #16]
	ldr	x30, [x18, #-8]!
	add	sp, sp, #112
	ret
.Ltmp3145:
.Lfunc_end24:
	.size	direct_mode_data_change_part, .Lfunc_end24-direct_mode_data_change_part
	.cfi_endproc

	.p2align	2
	.type	direct_mode_data_change2,@function
direct_mode_data_change2:
.Lfunc_begin25:
	.loc	1 1524 0
	.cfi_startproc
	str	x23, [sp, #-48]!
	stp	x22, x21, [sp, #16]
	stp	x20, x19, [sp, #32]
	.cfi_def_cfa_offset 48
	.cfi_offset w19, -8
	.cfi_offset w20, -16
	.cfi_offset w21, -24
	.cfi_offset w22, -32
	.cfi_offset w23, -48
.Ltmp3146:
	.loc	1 1525 29 prologue_end
	adrp	x8, global_ebc
	ldr	x8, [x8, :lo12:global_ebc]
.Ltmp3147:
	.loc	1 1536 18
	ldp	w8, w11, [x8, #116]
.Ltmp3148:
	.loc	1 1542 14
	cmp	w11, #0
.Ltmp3149:
	.loc	1 1535 23
	lsr	w13, w8, #3
.Ltmp3150:
	.loc	1 1542 14
	cinc	w9, w11, lt
.Ltmp3151:
	.loc	1 1540 19
	cmp	w11, #0
.Ltmp3152:
	.loc	1 1542 14
	asr	w9, w9, #1
.Ltmp3153:
	.loc	1 1540 19
	cinc	w10, w11, lt
.Ltmp3154:
	.loc	1 1538 6
	cmp	w4, #2
.Ltmp3155:
	.loc	1 1540 19
	asr	w10, w10, #1
.Ltmp3156:
	.loc	1 1543 19
	mul	w12, w9, w13
.Ltmp3157:
	.loc	1 1538 6
	csel	w14, wzr, wzr, ne
	csel	w15, w11, w10, ne
	cmp	w4, #3
.Ltmp3158:
	.loc	1 1543 14
	sbfiz	x10, x12, #3, #32
.Ltmp3159:
	.loc	1 1538 6
	csel	w9, w9, w14, eq
.Ltmp3160:
	.loc	1 1544 14
	add	x12, x2, x10
.Ltmp3161:
	.loc	1 1543 14
	add	x14, x1, x10
.Ltmp3162:
	.loc	1 1538 6
	csel	x10, x12, x2, eq
	csel	w11, w11, w15, eq
	csel	x12, x14, x1, eq
.Ltmp3163:
	.loc	1 1550 2
	cmp	w9, w11
	b.ge	.LBB25_10
.Ltmp3164:
	.loc	1 0 0 is_stmt 0
	ldrb	w14, [x3, #56]
	lsr	w17, w8, #2
.Ltmp3165:
	ldr	w15, [x3, #72]
.Ltmp3166:
	.loc	1 1550 2
	cmp	w13, #1
.Ltmp3167:
	.loc	1 0 0
	ldr	x16, [x3, #120]
.Ltmp3168:
	.loc	1 1550 2
	csinc	w13, w13, wzr, hi
.Ltmp3169:
	.loc	1 0 0
	sub	w14, w14, w15
.Ltmp3170:
	lsl	w15, w14, #10
.Ltmp3171:
	.loc	1 1550 2
	mul	w14, w9, w17
.Ltmp3172:
	.loc	1 0 0
	add	x15, x16, w15, sxtw
.Ltmp3173:
	.loc	1 1550 2
	lsl	w16, w17, #1
	lsl	x17, x13, #3
.Ltmp3174:
	.loc	1 0 2
	b	.LBB25_3
.Ltmp3175:
.LBB25_2:
	.loc	1 1550 23
	add	w9, w9, #2
.Ltmp3176:
	.loc	1 1550 2
	add	w14, w14, w16
	cmp	w9, w11
	b.ge	.LBB25_10
.Ltmp3177:
.LBB25_3:
	.loc	1 1552 3 is_stmt 1
	cmp	w8, #8
	b.lo	.LBB25_2
.Ltmp3178:
	.loc	1 0 3 is_stmt 0
	add	x1, x0, w14, sxtw
	mov	x2, x13
	mov	x3, x1
.Ltmp3179:
.LBB25_5:
	.loc	1 1554 15 is_stmt 1
	ldr	x4, [x10], #8
.Ltmp3180:
	.loc	1 1553 15
	ldr	x5, [x12], #8
.Ltmp3181:
	.loc	1 1552 17
	subs	x2, x2, #1
.Ltmp3182:
	.loc	1 306 32
	lsl	w6, w4, #2
	.loc	1 307 25
	lsr	x7, x4, #6
	.loc	1 308 25
	lsr	x19, x4, #14
	.loc	1 306 37
	and	x6, x6, #0x3e0
	.loc	1 307 30
	and	x7, x7, #0x3e0
	.loc	1 309 25
	lsr	x20, x4, #22
	.loc	1 306 46
	bfxil	x6, x5, #3, #5
	.loc	1 308 31
	and	x19, x19, #0x3e0
	.loc	1 307 39
	bfxil	x7, x5, #11, #5
	.loc	1 309 31
	and	x20, x20, #0x3e0
	.loc	1 308 40
	bfxil	x19, x5, #19, #5
	.loc	1 310 25
	lsr	x21, x4, #30
	.loc	1 309 40
	bfxil	x20, x5, #27, #5
	.loc	1 310 31
	and	x21, x21, #0x3e0
	.loc	1 311 25
	lsr	x22, x4, #38
	.loc	1 306 13
	ldrb	w6, [x15, x6]
	.loc	1 307 6
	ldrb	w7, [x15, x7]
	.loc	1 310 40
	bfxil	x21, x5, #35, #5
	.loc	1 311 31
	and	x22, x22, #0x3e0
	.loc	1 312 25
	lsr	x23, x4, #46
	.loc	1 308 6
	ldrb	w19, [x15, x19]
	.loc	1 311 40
	bfxil	x22, x5, #43, #5
	.loc	1 312 31
	and	x23, x23, #0x3e0
	.loc	1 313 25
	lsr	x4, x4, #54
.Ltmp3183:
	.loc	1 309 6
	ldrb	w20, [x15, x20]
	.loc	1 312 40
	bfxil	x23, x5, #51, #5
	.loc	1 313 31
	and	x4, x4, #0x3e0
	.loc	1 307 4
	orr	w6, w6, w7, lsl #4
	.loc	1 313 40
	bfxil	x4, x5, #59, #5
	.loc	1 310 6
	ldrb	w5, [x15, x21]
.Ltmp3184:
	.loc	1 311 6
	ldrb	w7, [x15, x22]
	.loc	1 308 4
	orr	w6, w6, w19, lsl #8
	.loc	1 312 6
	ldrb	w19, [x15, x23]
	.loc	1 309 4
	orr	w6, w6, w20, lsl #12
	.loc	1 313 6
	ldrb	w4, [x15, x4]
	.loc	1 310 4
	orr	w5, w6, w5, lsl #16
	.loc	1 311 4
	orr	w5, w5, w7, lsl #20
	.loc	1 312 4
	orr	w5, w5, w19, lsl #24
	.loc	1 313 4
	orr	w4, w5, w4, lsl #28
.Ltmp3185:
	.loc	1 1555 28
	str	w4, [x3], #4
.Ltmp3186:
	.loc	1 1552 3
	b.ne	.LBB25_5
.Ltmp3187:
	.loc	1 1557 3
	cmp	w8, #8
	b.lo	.LBB25_2
.Ltmp3188:
	.loc	1 0 3 is_stmt 0
	mov	x2, xzr
.Ltmp3189:
.LBB25_8:
	.loc	1 1559 15 is_stmt 1
	ldr	x3, [x10, x2]
.Ltmp3190:
	.loc	1 1558 15
	ldr	x4, [x12, x2]
.Ltmp3191:
	.loc	1 1557 17
	add	x2, x2, #8
.Ltmp3192:
	.loc	1 1557 3 is_stmt 0
	cmp	x17, x2
.Ltmp3193:
	.loc	1 319 25 is_stmt 1
	lsr	x6, x3, #6
	.loc	1 318 32
	lsl	w5, w3, #2
	.loc	1 319 30
	and	x6, x6, #0x3e0
	.loc	1 320 25
	lsr	x7, x3, #14
	.loc	1 318 37
	and	x5, x5, #0x3e0
	.loc	1 319 39
	bfxil	x6, x4, #11, #5
	.loc	1 321 25
	lsr	x19, x3, #22
	.loc	1 318 46
	bfxil	x5, x4, #3, #5
	.loc	1 320 31
	and	x7, x7, #0x3e0
	.loc	1 322 25
	lsr	x20, x3, #30
	.loc	1 320 40
	bfxil	x7, x4, #19, #5
	.loc	1 321 31
	and	x19, x19, #0x3e0
	.loc	1 323 25
	lsr	x21, x3, #38
	.loc	1 322 31
	and	x20, x20, #0x3e0
	.loc	1 319 6
	ldrb	w6, [x15, x6]
	.loc	1 321 40
	bfxil	x19, x4, #27, #5
	.loc	1 318 13
	ldrb	w5, [x15, x5]
	.loc	1 322 40
	bfxil	x20, x4, #35, #5
	.loc	1 323 31
	and	x21, x21, #0x3e0
	.loc	1 324 25
	lsr	x22, x3, #46
	.loc	1 325 25
	lsr	x3, x3, #54
.Ltmp3194:
	.loc	1 320 6
	ldrb	w7, [x15, x7]
	.loc	1 323 40
	bfxil	x21, x4, #43, #5
	.loc	1 324 31
	and	x22, x22, #0x3e0
	.loc	1 325 31
	and	x3, x3, #0x3e0
	.loc	1 324 40
	bfxil	x22, x4, #51, #5
	.loc	1 325 40
	bfxil	x3, x4, #59, #5
	.loc	1 321 6
	ldrb	w4, [x15, x19]
.Ltmp3195:
	.loc	1 319 66
	lsl	w6, w6, #6
	.loc	1 322 6
	ldrb	w19, [x15, x20]
	.loc	1 319 4
	orr	w5, w6, w5, lsl #2
	.loc	1 323 6
	ldrb	w6, [x15, x21]
	.loc	1 320 4
	orr	w5, w5, w7, lsl #10
	.loc	1 324 6
	ldrb	w7, [x15, x22]
	.loc	1 321 4
	orr	w4, w5, w4, lsl #14
	.loc	1 325 6
	ldrb	w3, [x15, x3]
	.loc	1 322 4
	orr	w4, w4, w19, lsl #18
.Ltmp3196:
	.loc	1 1560 28
	ldr	w5, [x1]
.Ltmp3197:
	.loc	1 323 4
	orr	w4, w4, w6, lsl #22
	.loc	1 324 4
	orr	w4, w4, w7, lsl #26
	.loc	1 325 4
	orr	w4, w4, w5
.Ltmp3198:
	.loc	1 1560 28
	orr	w3, w4, w3, lsl #30
	str	w3, [x1], #4
.Ltmp3199:
	.loc	1 1557 3
	b.ne	.LBB25_8
.Ltmp3200:
	.loc	1 1550 23
	add	x12, x12, x2
	add	x10, x10, x2
	b	.LBB25_2
.Ltmp3201:
.LBB25_10:
	.loc	1 1563 1
	ldp	x20, x19, [sp, #32]
	ldp	x22, x21, [sp, #16]
	ldr	x23, [sp], #48
	ret
.Ltmp3202:
.Lfunc_end25:
	.size	direct_mode_data_change2, .Lfunc_end25-direct_mode_data_change2
	.cfi_endproc

	.p2align	2
	.type	direct_mode_data_change,@function
direct_mode_data_change:
.Lfunc_begin26:
	.loc	1 1437 0
	.cfi_startproc
	str	x19, [sp, #-16]!
	.cfi_def_cfa_offset 16
	.cfi_offset w19, -16
.Ltmp3203:
	.loc	1 1438 29 prologue_end
	adrp	x8, global_ebc
	ldr	x9, [x8, :lo12:global_ebc]
.Ltmp3204:
	.loc	1 1447 17
	ldp	w8, w11, [x9, #116]
.Ltmp3205:
	.loc	1 1461 13
	ldr	w13, [x9, #196]
.Ltmp3206:
	.loc	1 1454 14
	cmp	w11, #0
.Ltmp3207:
	.loc	1 1447 23
	lsr	w14, w8, #3
.Ltmp3208:
	.loc	1 1454 14
	cinc	w9, w11, lt
.Ltmp3209:
	.loc	1 1452 19
	cmp	w11, #0
.Ltmp3210:
	.loc	1 1454 14
	asr	w9, w9, #1
.Ltmp3211:
	.loc	1 1452 19
	cinc	w10, w11, lt
.Ltmp3212:
	.loc	1 1450 6
	cmp	w4, #2
.Ltmp3213:
	.loc	1 1452 19
	asr	w10, w10, #1
.Ltmp3214:
	.loc	1 1455 19
	mul	w15, w9, w14
.Ltmp3215:
	.loc	1 1450 6
	csel	w12, wzr, wzr, ne
	csel	w10, w11, w10, ne
.Ltmp3216:
	cmp	w4, #3
	csel	w9, w9, w12, eq
.Ltmp3217:
	.loc	1 1455 14
	sbfiz	x12, x15, #3, #32
.Ltmp3218:
	.loc	1 1462 34
	mvn	w15, w9
.Ltmp3219:
	.loc	1 1455 14
	add	x17, x1, x12
.Ltmp3220:
	.loc	1 1456 14
	add	x12, x2, x12
.Ltmp3221:
	.loc	1 1466 28
	lsr	w16, w8, #2
.Ltmp3222:
	.loc	1 1450 6
	csel	w10, w11, w10, eq
.Ltmp3223:
	.loc	1 1462 34
	add	w15, w11, w15
.Ltmp3224:
	.loc	1 1450 6
	csel	x11, x12, x2, eq
	csel	x12, x17, x1, eq
.Ltmp3225:
	.loc	1 1463 17
	neg	w17, w8, lsr #2
.Ltmp3226:
	.loc	1 1461 6
	cmp	w13, #0
